
avr-console:     file format elf32-avr


Disassembly of section .text:

00000000 <__vectors>:
       0:	0c 94 1d 01 	jmp	0x23a	; 0x23a <__ctors_end>
       4:	0c 94 45 01 	jmp	0x28a	; 0x28a <__bad_interrupt>
       8:	0c 94 45 01 	jmp	0x28a	; 0x28a <__bad_interrupt>
       c:	0c 94 45 01 	jmp	0x28a	; 0x28a <__bad_interrupt>
      10:	0c 94 45 01 	jmp	0x28a	; 0x28a <__bad_interrupt>
      14:	0c 94 45 01 	jmp	0x28a	; 0x28a <__bad_interrupt>
      18:	0c 94 45 01 	jmp	0x28a	; 0x28a <__bad_interrupt>
      1c:	0c 94 45 01 	jmp	0x28a	; 0x28a <__bad_interrupt>
      20:	0c 94 45 01 	jmp	0x28a	; 0x28a <__bad_interrupt>
      24:	0c 94 45 01 	jmp	0x28a	; 0x28a <__bad_interrupt>
      28:	0c 94 45 01 	jmp	0x28a	; 0x28a <__bad_interrupt>
      2c:	0c 94 45 01 	jmp	0x28a	; 0x28a <__bad_interrupt>
      30:	0c 94 45 01 	jmp	0x28a	; 0x28a <__bad_interrupt>
      34:	0c 94 45 01 	jmp	0x28a	; 0x28a <__bad_interrupt>
      38:	0c 94 45 01 	jmp	0x28a	; 0x28a <__bad_interrupt>
      3c:	0c 94 45 01 	jmp	0x28a	; 0x28a <__bad_interrupt>
      40:	0c 94 45 01 	jmp	0x28a	; 0x28a <__bad_interrupt>
      44:	0c 94 45 01 	jmp	0x28a	; 0x28a <__bad_interrupt>
      48:	0c 94 4b 02 	jmp	0x496	; 0x496 <__vector_18>
      4c:	0c 94 c6 01 	jmp	0x38c	; 0x38c <__vector_19>
      50:	0c 94 b1 01 	jmp	0x362	; 0x362 <__vector_20>
      54:	0c 94 45 01 	jmp	0x28a	; 0x28a <__bad_interrupt>
      58:	0c 94 45 01 	jmp	0x28a	; 0x28a <__bad_interrupt>
      5c:	0c 94 45 01 	jmp	0x28a	; 0x28a <__bad_interrupt>
      60:	0c 94 45 01 	jmp	0x28a	; 0x28a <__bad_interrupt>
      64:	0c 94 45 01 	jmp	0x28a	; 0x28a <__bad_interrupt>
      68:	16 07       	cpc	r17, r22
      6a:	11 07       	cpc	r17, r17
      6c:	e1 06       	cpc	r14, r17
      6e:	dc 06       	cpc	r13, r28
      70:	06 07       	cpc	r16, r22
      72:	f0 06       	cpc	r15, r16
      74:	8b 06       	cpc	r8, r27
      76:	95 06       	cpc	r9, r21
      78:	3f 06       	cpc	r3, r31
      7a:	39 06       	cpc	r3, r25
      7c:	13 06       	cpc	r1, r19
      7e:	0d 06       	cpc	r0, r29
      80:	ea 05       	cpc	r30, r10
      82:	62 06       	cpc	r6, r18
      84:	5d 06       	cpc	r5, r29
      86:	3c 07       	cpc	r19, r28
      88:	e6 06       	cpc	r14, r22
      8a:	d2 06       	cpc	r13, r18
      8c:	cd 06       	cpc	r12, r29
      8e:	c3 06       	cpc	r12, r19
      90:	b1 06       	cpc	r11, r17

00000092 <__c.1610>:
      92:	0a 0a 23 23 23 23 23 23 23 23 23 23 23 23 23 23     ..##############
      a2:	23 23 23 23 23 23 23 23 23 23 23 23 23 23 23 23     ################
      b2:	23 0a 23 0a 23 20 41 56 52 20 63 6f 6e 73 6f 6c     #.#.# AVR consol
      c2:	65 2d 63 6f 6d 6d 61 6e 64 6c 69 6e 65 20 64 65     e-commandline de
      d2:	6d 6f 2e 0a 23 0a 23 23 23 23 23 23 23 23 23 23     mo..#.##########
      e2:	23 23 23 23 23 23 23 23 23 23 23 23 23 23 23 23     ################
      f2:	23 23 23 23 23 0a 0a 00                             #####...

000000fa <cmdtbl>:
      fa:	00 00 1d 03 c9 04 fe 03 26 03                       ........&.

00000104 <__c.1735>:
     104:	0a 75 73 61 67 65 3a 20 72 72 20 61 64 64 72 65     .usage: rr addre
     114:	73 73 20 5b 63 6f 75 6e 74 5d 0a 0a 00              ss [count]...

00000121 <__c.1742>:
     121:	25 30 34 78 20 20 00                                %04x  .

00000128 <__c.1744>:
     128:	25 30 32 78 20 00                                   %02x .

0000012e <__c.1746>:
     12e:	20 20 20 00                                            .

00000132 <__c.1763>:
     132:	0a 75 73 61 67 65 3a 20 72 66 20 61 64 64 72 65     .usage: rf addre
     142:	73 73 20 63 6f 75 6e 74 0a 0a 00                    ss count...

0000014d <__c.1767>:
     14d:	25 30 34 78 20 20 00                                %04x  .

00000154 <__c.1769>:
     154:	25 30 32 78 20 00                                   %02x .

0000015a <__c.1774>:
     15a:	20 20 20 00                                            .

0000015e <__c.1797>:
     15e:	0a 75 73 61 67 65 3a 20 77 72 20 61 64 64 72 65     .usage: wr addre
     16e:	73 73 0a 0a 00                                      ss...

00000173 <__c.1801>:
     173:	25 30 34 78 20 20 00                                %04x  .

0000017a <__c.1803>:
     17a:	25 30 32 78 20 00                                   %02x .

00000180 <__c.1805>:
     180:	20 20 20 00                                            .

00000184 <__c.1820>:
     184:	0a 43 6f 6d 6d 61 6e 64 20 75 73 61 67 65 3a 0a     .Command usage:.
     194:	0a 20 20 68 65 6c 70 20 2d 20 64 69 73 70 6c 61     .  help - displa
     1a4:	79 20 74 68 69 73 20 6d 65 73 73 61 67 65 0a 20     y this message. 
     1b4:	20 72 72 20 20 20 2d 20 72 65 61 64 20 52 41 4d      rr   - read RAM
     1c4:	0a 20 20 72 66 20 20 20 2d 20 72 65 61 64 20 66     .  rf   - read f
     1d4:	6c 61 73 68 0a 20 20 77 72 20 20 20 2d 20 77 72     lash.  wr   - wr
     1e4:	69 74 65 20 52 41 4d 0a 0a 00                       ite RAM...

000001ee <__c.1842>:
     1ee:	63 6d 64 6c 69 6e 65 24 20 00                       cmdline$ .

000001f8 <__c.2005>:
     1f8:	0a 63 6d 64 6c 69 6e 65 3a 20 63 6f 6d 6d 61 6e     .cmdline: comman
     208:	64 20 6e 6f 74 20 66 6f 75 6e 64 0a 0a 00           d not found...

00000216 <__c.2007>:
     216:	0a 63 6d 64 6c 69 6e 65 3a 20 70 61 72 61 6d 65     .cmdline: parame
     226:	74 65 72 20 25 64 20 69 6e 76 61 6c 69 64 0a 0a     ter %d invalid..
	...

00000238 <__ctors_start>:
     238:	49 09       	sbc	r20, r9

0000023a <__ctors_end>:
     23a:	11 24       	eor	r1, r1
     23c:	1f be       	out	0x3f, r1	; 63
     23e:	cf ef       	ldi	r28, 0xFF	; 255
     240:	d8 e0       	ldi	r29, 0x08	; 8
     242:	de bf       	out	0x3e, r29	; 62
     244:	cd bf       	out	0x3d, r28	; 61

00000246 <__do_copy_data>:
     246:	11 e0       	ldi	r17, 0x01	; 1
     248:	a0 e0       	ldi	r26, 0x00	; 0
     24a:	b1 e0       	ldi	r27, 0x01	; 1
     24c:	e8 e7       	ldi	r30, 0x78	; 120
     24e:	f9 e1       	ldi	r31, 0x19	; 25
     250:	02 c0       	rjmp	.+4      	; 0x256 <__do_copy_data+0x10>
     252:	05 90       	lpm	r0, Z+
     254:	0d 92       	st	X+, r0
     256:	ae 30       	cpi	r26, 0x0E	; 14
     258:	b1 07       	cpc	r27, r17
     25a:	d9 f7       	brne	.-10     	; 0x252 <__do_copy_data+0xc>

0000025c <__do_clear_bss>:
     25c:	21 e0       	ldi	r18, 0x01	; 1
     25e:	ae e0       	ldi	r26, 0x0E	; 14
     260:	b1 e0       	ldi	r27, 0x01	; 1
     262:	01 c0       	rjmp	.+2      	; 0x266 <.do_clear_bss_start>

00000264 <.do_clear_bss_loop>:
     264:	1d 92       	st	X+, r1

00000266 <.do_clear_bss_start>:
     266:	af 37       	cpi	r26, 0x7F	; 127
     268:	b2 07       	cpc	r27, r18
     26a:	e1 f7       	brne	.-8      	; 0x264 <.do_clear_bss_loop>

0000026c <__do_global_ctors>:
     26c:	12 e0       	ldi	r17, 0x02	; 2
     26e:	ca e3       	ldi	r28, 0x3A	; 58
     270:	d2 e0       	ldi	r29, 0x02	; 2
     272:	04 c0       	rjmp	.+8      	; 0x27c <__do_global_ctors+0x10>
     274:	22 97       	sbiw	r28, 0x02	; 2
     276:	fe 01       	movw	r30, r28
     278:	0e 94 8e 09 	call	0x131c	; 0x131c <__tablejump__>
     27c:	c8 33       	cpi	r28, 0x38	; 56
     27e:	d1 07       	cpc	r29, r17
     280:	c9 f7       	brne	.-14     	; 0x274 <__do_global_ctors+0x8>
     282:	0e 94 3f 09 	call	0x127e	; 0x127e <main>
     286:	0c 94 ba 0c 	jmp	0x1974	; 0x1974 <_exit>

0000028a <__bad_interrupt>:
     28a:	0c 94 00 00 	jmp	0	; 0x0 <__vectors>

0000028e <console_getchar>:
     28e:	1f 93       	push	r17
     290:	cf 93       	push	r28
     292:	df 93       	push	r29
     294:	1f 92       	push	r1
     296:	cd b7       	in	r28, 0x3d	; 61
     298:	de b7       	in	r29, 0x3e	; 62
     29a:	11 e0       	ldi	r17, 0x01	; 1
     29c:	11 c0       	rjmp	.+34     	; 0x2c0 <console_getchar+0x32>
     29e:	be 01       	movw	r22, r28
     2a0:	6f 5f       	subi	r22, 0xFF	; 255
     2a2:	7f 4f       	sbci	r23, 0xFF	; 255
     2a4:	8c e1       	ldi	r24, 0x1C	; 28
     2a6:	91 e0       	ldi	r25, 0x01	; 1
     2a8:	0e 94 55 08 	call	0x10aa	; 0x10aa <rb_get>
     2ac:	87 ff       	sbrs	r24, 7
     2ae:	24 c0       	rjmp	.+72     	; 0x2f8 <console_getchar+0x6a>
     2b0:	40 91 26 01 	lds	r20, 0x0126
     2b4:	46 fd       	sbrc	r20, 6
     2b6:	17 c0       	rjmp	.+46     	; 0x2e6 <console_getchar+0x58>
     2b8:	13 bf       	out	0x33, r17	; 51
     2ba:	78 94       	sei
     2bc:	88 95       	sleep
     2be:	13 be       	out	0x33, r1	; 51
     2c0:	f8 94       	cli
     2c2:	40 91 26 01 	lds	r20, 0x0126
     2c6:	45 ff       	sbrs	r20, 5
     2c8:	ea cf       	rjmp	.-44     	; 0x29e <console_getchar+0x10>
     2ca:	20 91 24 01 	lds	r18, 0x0124
     2ce:	30 91 25 01 	lds	r19, 0x0125
     2d2:	80 91 0e 01 	lds	r24, 0x010E
     2d6:	90 91 0f 01 	lds	r25, 0x010F
     2da:	28 17       	cp	r18, r24
     2dc:	39 07       	cpc	r19, r25
     2de:	f9 f6       	brne	.-66     	; 0x29e <console_getchar+0x10>
     2e0:	40 ff       	sbrs	r20, 0
     2e2:	e8 cf       	rjmp	.-48     	; 0x2b4 <console_getchar+0x26>
     2e4:	dc cf       	rjmp	.-72     	; 0x29e <console_getchar+0x10>
     2e6:	78 94       	sei
     2e8:	2e ef       	ldi	r18, 0xFE	; 254
     2ea:	3f ef       	ldi	r19, 0xFF	; 255
     2ec:	c9 01       	movw	r24, r18
     2ee:	0f 90       	pop	r0
     2f0:	df 91       	pop	r29
     2f2:	cf 91       	pop	r28
     2f4:	1f 91       	pop	r17
     2f6:	08 95       	ret
     2f8:	80 91 c1 00 	lds	r24, 0x00C1
     2fc:	80 69       	ori	r24, 0x90	; 144
     2fe:	80 93 c1 00 	sts	0x00C1, r24
     302:	78 94       	sei
     304:	29 81       	ldd	r18, Y+1	; 0x01
     306:	33 27       	eor	r19, r19
     308:	27 fd       	sbrc	r18, 7
     30a:	30 95       	com	r19
     30c:	c9 01       	movw	r24, r18
     30e:	0f 90       	pop	r0
     310:	df 91       	pop	r29
     312:	cf 91       	pop	r28
     314:	1f 91       	pop	r17
     316:	08 95       	ret

00000318 <console_putchar>:
     318:	1f 93       	push	r17
     31a:	cf 93       	push	r28
     31c:	df 93       	push	r29
     31e:	1f 92       	push	r1
     320:	cd b7       	in	r28, 0x3d	; 61
     322:	de b7       	in	r29, 0x3e	; 62
     324:	89 83       	std	Y+1, r24	; 0x01
     326:	11 e0       	ldi	r17, 0x01	; 1
     328:	04 c0       	rjmp	.+8      	; 0x332 <console_putchar+0x1a>
     32a:	13 bf       	out	0x33, r17	; 51
     32c:	78 94       	sei
     32e:	88 95       	sleep
     330:	13 be       	out	0x33, r1	; 51
     332:	f8 94       	cli
     334:	be 01       	movw	r22, r28
     336:	6f 5f       	subi	r22, 0xFF	; 255
     338:	7f 4f       	sbci	r23, 0xFF	; 255
     33a:	81 e1       	ldi	r24, 0x11	; 17
     33c:	91 e0       	ldi	r25, 0x01	; 1
     33e:	0e 94 ea 08 	call	0x11d4	; 0x11d4 <rb_put>
     342:	87 fd       	sbrc	r24, 7
     344:	f2 cf       	rjmp	.-28     	; 0x32a <console_putchar+0x12>
     346:	80 91 c1 00 	lds	r24, 0x00C1
     34a:	87 79       	andi	r24, 0x97	; 151
     34c:	88 62       	ori	r24, 0x28	; 40
     34e:	80 93 c1 00 	sts	0x00C1, r24
     352:	78 94       	sei
     354:	80 e0       	ldi	r24, 0x00	; 0
     356:	90 e0       	ldi	r25, 0x00	; 0
     358:	0f 90       	pop	r0
     35a:	df 91       	pop	r29
     35c:	cf 91       	pop	r28
     35e:	1f 91       	pop	r17
     360:	08 95       	ret

00000362 <__vector_20>:
     362:	1f 92       	push	r1
     364:	0f 92       	push	r0
     366:	0f b6       	in	r0, 0x3f	; 63
     368:	0f 92       	push	r0
     36a:	11 24       	eor	r1, r1
     36c:	8f 93       	push	r24
     36e:	ef 93       	push	r30
     370:	ff 93       	push	r31
     372:	e1 ec       	ldi	r30, 0xC1	; 193
     374:	f0 e0       	ldi	r31, 0x00	; 0
     376:	80 81       	ld	r24, Z
     378:	87 79       	andi	r24, 0x97	; 151
     37a:	80 83       	st	Z, r24
     37c:	ff 91       	pop	r31
     37e:	ef 91       	pop	r30
     380:	8f 91       	pop	r24
     382:	0f 90       	pop	r0
     384:	0f be       	out	0x3f, r0	; 63
     386:	0f 90       	pop	r0
     388:	1f 90       	pop	r1
     38a:	18 95       	reti

0000038c <__vector_19>:
     38c:	1f 92       	push	r1
     38e:	0f 92       	push	r0
     390:	0f b6       	in	r0, 0x3f	; 63
     392:	0f 92       	push	r0
     394:	11 24       	eor	r1, r1
     396:	2f 93       	push	r18
     398:	3f 93       	push	r19
     39a:	4f 93       	push	r20
     39c:	5f 93       	push	r21
     39e:	6f 93       	push	r22
     3a0:	7f 93       	push	r23
     3a2:	8f 93       	push	r24
     3a4:	9f 93       	push	r25
     3a6:	af 93       	push	r26
     3a8:	bf 93       	push	r27
     3aa:	ef 93       	push	r30
     3ac:	ff 93       	push	r31
     3ae:	cf 93       	push	r28
     3b0:	df 93       	push	r29
     3b2:	1f 92       	push	r1
     3b4:	cd b7       	in	r28, 0x3d	; 61
     3b6:	de b7       	in	r29, 0x3e	; 62
     3b8:	80 91 10 01 	lds	r24, 0x0110
     3bc:	90 91 1b 01 	lds	r25, 0x011B
     3c0:	88 23       	and	r24, r24
     3c2:	e1 f0       	breq	.+56     	; 0x3fc <__vector_19+0x70>
     3c4:	94 fd       	sbrc	r25, 4
     3c6:	36 c0       	rjmp	.+108    	; 0x434 <__vector_19+0xa8>
     3c8:	90 61       	ori	r25, 0x10	; 16
     3ca:	90 93 1b 01 	sts	0x011B, r25
     3ce:	88 e0       	ldi	r24, 0x08	; 8
     3d0:	80 93 c6 00 	sts	0x00C6, r24
     3d4:	0f 90       	pop	r0
     3d6:	df 91       	pop	r29
     3d8:	cf 91       	pop	r28
     3da:	ff 91       	pop	r31
     3dc:	ef 91       	pop	r30
     3de:	bf 91       	pop	r27
     3e0:	af 91       	pop	r26
     3e2:	9f 91       	pop	r25
     3e4:	8f 91       	pop	r24
     3e6:	7f 91       	pop	r23
     3e8:	6f 91       	pop	r22
     3ea:	5f 91       	pop	r21
     3ec:	4f 91       	pop	r20
     3ee:	3f 91       	pop	r19
     3f0:	2f 91       	pop	r18
     3f2:	0f 90       	pop	r0
     3f4:	0f be       	out	0x3f, r0	; 63
     3f6:	0f 90       	pop	r0
     3f8:	1f 90       	pop	r1
     3fa:	18 95       	reti
     3fc:	93 ff       	sbrs	r25, 3
     3fe:	23 c0       	rjmp	.+70     	; 0x446 <__vector_19+0xba>
     400:	97 7f       	andi	r25, 0xF7	; 247
     402:	90 93 1b 01 	sts	0x011B, r25
     406:	8a e0       	ldi	r24, 0x0A	; 10
     408:	89 83       	std	Y+1, r24	; 0x01
     40a:	80 93 c6 00 	sts	0x00C6, r24
     40e:	92 ff       	sbrs	r25, 2
     410:	e1 cf       	rjmp	.-62     	; 0x3d4 <__vector_19+0x48>
     412:	80 91 26 01 	lds	r24, 0x0126
     416:	81 ff       	sbrs	r24, 1
     418:	dd cf       	rjmp	.-70     	; 0x3d4 <__vector_19+0x48>
     41a:	80 91 10 01 	lds	r24, 0x0110
     41e:	81 11       	cpse	r24, r1
     420:	d9 cf       	rjmp	.-78     	; 0x3d4 <__vector_19+0x48>
     422:	93 fd       	sbrc	r25, 3
     424:	d7 cf       	rjmp	.-82     	; 0x3d4 <__vector_19+0x48>
     426:	80 91 c1 00 	lds	r24, 0x00C1
     42a:	87 79       	andi	r24, 0x97	; 151
     42c:	88 64       	ori	r24, 0x48	; 72
     42e:	80 93 c1 00 	sts	0x00C1, r24
     432:	d0 cf       	rjmp	.-96     	; 0x3d4 <__vector_19+0x48>
     434:	95 fd       	sbrc	r25, 5
     436:	1e c0       	rjmp	.+60     	; 0x474 <__vector_19+0xe8>
     438:	90 62       	ori	r25, 0x20	; 32
     43a:	90 93 1b 01 	sts	0x011B, r25
     43e:	80 e2       	ldi	r24, 0x20	; 32
     440:	80 93 c6 00 	sts	0x00C6, r24
     444:	c7 cf       	rjmp	.-114    	; 0x3d4 <__vector_19+0x48>
     446:	be 01       	movw	r22, r28
     448:	6f 5f       	subi	r22, 0xFF	; 255
     44a:	7f 4f       	sbci	r23, 0xFF	; 255
     44c:	8c e1       	ldi	r24, 0x1C	; 28
     44e:	91 e0       	ldi	r25, 0x01	; 1
     450:	0e 94 fc 07 	call	0xff8	; 0xff8 <rb_echo>
     454:	87 fd       	sbrc	r24, 7
     456:	17 c0       	rjmp	.+46     	; 0x486 <__vector_19+0xfa>
     458:	90 91 1b 01 	lds	r25, 0x011B
     45c:	89 81       	ldd	r24, Y+1	; 0x01
     45e:	96 ff       	sbrs	r25, 6
     460:	d4 cf       	rjmp	.-88     	; 0x40a <__vector_19+0x7e>
     462:	8a 30       	cpi	r24, 0x0A	; 10
     464:	91 f6       	brne	.-92     	; 0x40a <__vector_19+0x7e>
     466:	98 60       	ori	r25, 0x08	; 8
     468:	90 93 1b 01 	sts	0x011B, r25
     46c:	8d e0       	ldi	r24, 0x0D	; 13
     46e:	80 93 c6 00 	sts	0x00C6, r24
     472:	b0 cf       	rjmp	.-160    	; 0x3d4 <__vector_19+0x48>
     474:	81 50       	subi	r24, 0x01	; 1
     476:	80 93 10 01 	sts	0x0110, r24
     47a:	9f 7c       	andi	r25, 0xCF	; 207
     47c:	90 93 1b 01 	sts	0x011B, r25
     480:	88 e0       	ldi	r24, 0x08	; 8
     482:	89 83       	std	Y+1, r24	; 0x01
     484:	c2 cf       	rjmp	.-124    	; 0x40a <__vector_19+0x7e>
     486:	be 01       	movw	r22, r28
     488:	6f 5f       	subi	r22, 0xFF	; 255
     48a:	7f 4f       	sbci	r23, 0xFF	; 255
     48c:	81 e1       	ldi	r24, 0x11	; 17
     48e:	91 e0       	ldi	r25, 0x01	; 1
     490:	0e 94 55 08 	call	0x10aa	; 0x10aa <rb_get>
     494:	e1 cf       	rjmp	.-62     	; 0x458 <__vector_19+0xcc>

00000496 <__vector_18>:
     496:	1f 92       	push	r1
     498:	0f 92       	push	r0
     49a:	0f b6       	in	r0, 0x3f	; 63
     49c:	0f 92       	push	r0
     49e:	11 24       	eor	r1, r1
     4a0:	2f 93       	push	r18
     4a2:	3f 93       	push	r19
     4a4:	4f 93       	push	r20
     4a6:	5f 93       	push	r21
     4a8:	6f 93       	push	r22
     4aa:	7f 93       	push	r23
     4ac:	8f 93       	push	r24
     4ae:	9f 93       	push	r25
     4b0:	af 93       	push	r26
     4b2:	bf 93       	push	r27
     4b4:	ef 93       	push	r30
     4b6:	ff 93       	push	r31
     4b8:	cf 93       	push	r28
     4ba:	df 93       	push	r29
     4bc:	1f 92       	push	r1
     4be:	cd b7       	in	r28, 0x3d	; 61
     4c0:	de b7       	in	r29, 0x3e	; 62
     4c2:	90 91 c6 00 	lds	r25, 0x00C6
     4c6:	99 83       	std	Y+1, r25	; 0x01
     4c8:	80 91 26 01 	lds	r24, 0x0126
     4cc:	83 ff       	sbrs	r24, 3
     4ce:	03 c0       	rjmp	.+6      	; 0x4d6 <__vector_18+0x40>
     4d0:	9d 30       	cpi	r25, 0x0D	; 13
     4d2:	09 f4       	brne	.+2      	; 0x4d6 <__vector_18+0x40>
     4d4:	75 c0       	rjmp	.+234    	; 0x5c0 <__vector_18+0x12a>
     4d6:	85 ff       	sbrs	r24, 5
     4d8:	07 c0       	rjmp	.+14     	; 0x4e8 <__vector_18+0x52>
     4da:	99 81       	ldd	r25, Y+1	; 0x01
     4dc:	98 30       	cpi	r25, 0x08	; 8
     4de:	09 f4       	brne	.+2      	; 0x4e2 <__vector_18+0x4c>
     4e0:	4e c0       	rjmp	.+156    	; 0x57e <__vector_18+0xe8>
     4e2:	95 31       	cpi	r25, 0x15	; 21
     4e4:	09 f4       	brne	.+2      	; 0x4e8 <__vector_18+0x52>
     4e6:	6f c0       	rjmp	.+222    	; 0x5c6 <__vector_18+0x130>
     4e8:	be 01       	movw	r22, r28
     4ea:	6f 5f       	subi	r22, 0xFF	; 255
     4ec:	7f 4f       	sbci	r23, 0xFF	; 255
     4ee:	84 ff       	sbrs	r24, 4
     4f0:	31 c0       	rjmp	.+98     	; 0x554 <__vector_18+0xbe>
     4f2:	8c e1       	ldi	r24, 0x1C	; 28
     4f4:	91 e0       	ldi	r25, 0x01	; 1
     4f6:	0e 94 16 09 	call	0x122c	; 0x122c <rb_put_echo>
     4fa:	88 23       	and	r24, r24
     4fc:	89 f1       	breq	.+98     	; 0x560 <__vector_18+0xca>
     4fe:	80 91 26 01 	lds	r24, 0x0126
     502:	28 2f       	mov	r18, r24
     504:	84 ff       	sbrs	r24, 4
     506:	07 c0       	rjmp	.+14     	; 0x516 <__vector_18+0x80>
     508:	90 91 c1 00 	lds	r25, 0x00C1
     50c:	97 79       	andi	r25, 0x97	; 151
     50e:	98 62       	ori	r25, 0x28	; 40
     510:	90 93 c1 00 	sts	0x00C1, r25
     514:	28 2f       	mov	r18, r24
     516:	89 81       	ldd	r24, Y+1	; 0x01
     518:	8a 30       	cpi	r24, 0x0A	; 10
     51a:	09 f4       	brne	.+2      	; 0x51e <__vector_18+0x88>
     51c:	6b c0       	rjmp	.+214    	; 0x5f4 <__vector_18+0x15e>
     51e:	20 ff       	sbrs	r18, 0
     520:	05 c0       	rjmp	.+10     	; 0x52c <__vector_18+0x96>
     522:	80 91 c1 00 	lds	r24, 0x00C1
     526:	8f 77       	andi	r24, 0x7F	; 127
     528:	80 93 c1 00 	sts	0x00C1, r24
     52c:	0f 90       	pop	r0
     52e:	df 91       	pop	r29
     530:	cf 91       	pop	r28
     532:	ff 91       	pop	r31
     534:	ef 91       	pop	r30
     536:	bf 91       	pop	r27
     538:	af 91       	pop	r26
     53a:	9f 91       	pop	r25
     53c:	8f 91       	pop	r24
     53e:	7f 91       	pop	r23
     540:	6f 91       	pop	r22
     542:	5f 91       	pop	r21
     544:	4f 91       	pop	r20
     546:	3f 91       	pop	r19
     548:	2f 91       	pop	r18
     54a:	0f 90       	pop	r0
     54c:	0f be       	out	0x3f, r0	; 63
     54e:	0f 90       	pop	r0
     550:	1f 90       	pop	r1
     552:	18 95       	reti
     554:	8c e1       	ldi	r24, 0x1C	; 28
     556:	91 e0       	ldi	r25, 0x01	; 1
     558:	0e 94 ea 08 	call	0x11d4	; 0x11d4 <rb_put>
     55c:	81 11       	cpse	r24, r1
     55e:	cf cf       	rjmp	.-98     	; 0x4fe <__vector_18+0x68>
     560:	20 91 26 01 	lds	r18, 0x0126
     564:	82 2f       	mov	r24, r18
     566:	25 ff       	sbrs	r18, 5
     568:	cd cf       	rjmp	.-102    	; 0x504 <__vector_18+0x6e>
     56a:	99 81       	ldd	r25, Y+1	; 0x01
     56c:	9a 30       	cpi	r25, 0x0A	; 10
     56e:	51 f2       	breq	.-108    	; 0x504 <__vector_18+0x6e>
     570:	8c e1       	ldi	r24, 0x1C	; 28
     572:	91 e0       	ldi	r25, 0x01	; 1
     574:	0e 94 25 08 	call	0x104a	; 0x104a <rb_erase>
     578:	20 91 26 01 	lds	r18, 0x0126
     57c:	cc cf       	rjmp	.-104    	; 0x516 <__vector_18+0x80>
     57e:	20 91 20 01 	lds	r18, 0x0120
     582:	30 91 21 01 	lds	r19, 0x0121
     586:	80 91 0e 01 	lds	r24, 0x010E
     58a:	90 91 0f 01 	lds	r25, 0x010F
     58e:	28 17       	cp	r18, r24
     590:	39 07       	cpc	r19, r25
     592:	61 f2       	breq	.-104    	; 0x52c <__vector_18+0x96>
     594:	8c e1       	ldi	r24, 0x1C	; 28
     596:	91 e0       	ldi	r25, 0x01	; 1
     598:	0e 94 25 08 	call	0x104a	; 0x104a <rb_erase>
     59c:	88 23       	and	r24, r24
     59e:	31 f2       	breq	.-116    	; 0x52c <__vector_18+0x96>
     5a0:	80 91 26 01 	lds	r24, 0x0126
     5a4:	84 ff       	sbrs	r24, 4
     5a6:	c2 cf       	rjmp	.-124    	; 0x52c <__vector_18+0x96>
     5a8:	80 91 10 01 	lds	r24, 0x0110
     5ac:	8f 5f       	subi	r24, 0xFF	; 255
     5ae:	80 93 10 01 	sts	0x0110, r24
     5b2:	80 91 c1 00 	lds	r24, 0x00C1
     5b6:	87 79       	andi	r24, 0x97	; 151
     5b8:	88 62       	ori	r24, 0x28	; 40
     5ba:	80 93 c1 00 	sts	0x00C1, r24
     5be:	b6 cf       	rjmp	.-148    	; 0x52c <__vector_18+0x96>
     5c0:	9a e0       	ldi	r25, 0x0A	; 10
     5c2:	99 83       	std	Y+1, r25	; 0x01
     5c4:	88 cf       	rjmp	.-240    	; 0x4d6 <__vector_18+0x40>
     5c6:	60 91 0e 01 	lds	r22, 0x010E
     5ca:	70 91 0f 01 	lds	r23, 0x010F
     5ce:	8c e1       	ldi	r24, 0x1C	; 28
     5d0:	91 e0       	ldi	r25, 0x01	; 1
     5d2:	0e 94 90 08 	call	0x1120	; 0x1120 <rb_kill>
     5d6:	90 91 10 01 	lds	r25, 0x0110
     5da:	98 0f       	add	r25, r24
     5dc:	90 93 10 01 	sts	0x0110, r25
     5e0:	99 23       	and	r25, r25
     5e2:	09 f4       	brne	.+2      	; 0x5e6 <__vector_18+0x150>
     5e4:	a3 cf       	rjmp	.-186    	; 0x52c <__vector_18+0x96>
     5e6:	80 91 c1 00 	lds	r24, 0x00C1
     5ea:	87 79       	andi	r24, 0x97	; 151
     5ec:	88 62       	ori	r24, 0x28	; 40
     5ee:	80 93 c1 00 	sts	0x00C1, r24
     5f2:	9c cf       	rjmp	.-200    	; 0x52c <__vector_18+0x96>
     5f4:	80 91 20 01 	lds	r24, 0x0120
     5f8:	90 91 21 01 	lds	r25, 0x0121
     5fc:	90 93 0f 01 	sts	0x010F, r25
     600:	80 93 0e 01 	sts	0x010E, r24
     604:	8c cf       	rjmp	.-232    	; 0x51e <__vector_18+0x88>

00000606 <console_getattr>:
     606:	30 91 1b 01 	lds	r19, 0x011B
     60a:	20 e0       	ldi	r18, 0x00	; 0
     60c:	80 91 26 01 	lds	r24, 0x0126
     610:	28 2b       	or	r18, r24
     612:	28 77       	andi	r18, 0x78	; 120
     614:	30 74       	andi	r19, 0x40	; 64
     616:	c9 01       	movw	r24, r18
     618:	08 95       	ret

0000061a <console_setattr>:
     61a:	88 77       	andi	r24, 0x78	; 120
     61c:	90 74       	andi	r25, 0x40	; 64
     61e:	3f b7       	in	r19, 0x3f	; 63
     620:	f8 94       	cli
     622:	eb e1       	ldi	r30, 0x1B	; 27
     624:	f1 e0       	ldi	r31, 0x01	; 1
     626:	20 81       	ld	r18, Z
     628:	2f 7b       	andi	r18, 0xBF	; 191
     62a:	29 2b       	or	r18, r25
     62c:	20 83       	st	Z, r18
     62e:	27 78       	andi	r18, 0x87	; 135
     630:	28 2b       	or	r18, r24
     632:	20 93 26 01 	sts	0x0126, r18
     636:	3f bf       	out	0x3f, r19	; 63
     638:	08 95       	ret

0000063a <do_help>:
     63a:	84 e8       	ldi	r24, 0x84	; 132
     63c:	91 e0       	ldi	r25, 0x01	; 1
     63e:	9f 93       	push	r25
     640:	8f 93       	push	r24
     642:	0e 94 0e 0a 	call	0x141c	; 0x141c <printf_P>
     646:	0f 90       	pop	r0
     648:	0f 90       	pop	r0
     64a:	08 95       	ret

0000064c <do_writeram>:
     64c:	2f 92       	push	r2
     64e:	3f 92       	push	r3
     650:	4f 92       	push	r4
     652:	5f 92       	push	r5
     654:	6f 92       	push	r6
     656:	7f 92       	push	r7
     658:	8f 92       	push	r8
     65a:	9f 92       	push	r9
     65c:	af 92       	push	r10
     65e:	bf 92       	push	r11
     660:	cf 92       	push	r12
     662:	df 92       	push	r13
     664:	ef 92       	push	r14
     666:	ff 92       	push	r15
     668:	0f 93       	push	r16
     66a:	1f 93       	push	r17
     66c:	cf 93       	push	r28
     66e:	df 93       	push	r29
     670:	00 d0       	rcall	.+0      	; 0x672 <do_writeram+0x26>
     672:	00 d0       	rcall	.+0      	; 0x674 <do_writeram+0x28>
     674:	00 d0       	rcall	.+0      	; 0x676 <do_writeram+0x2a>
     676:	cd b7       	in	r28, 0x3d	; 61
     678:	de b7       	in	r29, 0x3e	; 62
     67a:	88 23       	and	r24, r24
     67c:	09 f4       	brne	.+2      	; 0x680 <do_writeram+0x34>
     67e:	b5 c0       	rjmp	.+362    	; 0x7ea <do_writeram+0x19e>
     680:	fb 01       	movw	r30, r22
     682:	a0 80       	ld	r10, Z
     684:	b1 80       	ldd	r11, Z+1	; 0x01
     686:	84 80       	ldd	r8, Z+4	; 0x04
     688:	95 80       	ldd	r9, Z+5	; 0x05
     68a:	81 14       	cp	r8, r1
     68c:	91 04       	cpc	r9, r1
     68e:	09 f4       	brne	.+2      	; 0x692 <do_writeram+0x46>
     690:	93 c0       	rjmp	.+294    	; 0x7b8 <do_writeram+0x16c>
     692:	93 e7       	ldi	r25, 0x73	; 115
     694:	49 2e       	mov	r4, r25
     696:	91 e0       	ldi	r25, 0x01	; 1
     698:	59 2e       	mov	r5, r25
     69a:	20 e8       	ldi	r18, 0x80	; 128
     69c:	c2 2e       	mov	r12, r18
     69e:	21 e0       	ldi	r18, 0x01	; 1
     6a0:	d2 2e       	mov	r13, r18
     6a2:	3a e7       	ldi	r19, 0x7A	; 122
     6a4:	e3 2e       	mov	r14, r19
     6a6:	31 e0       	ldi	r19, 0x01	; 1
     6a8:	f3 2e       	mov	r15, r19
     6aa:	34 01       	movw	r6, r8
     6ac:	f1 e1       	ldi	r31, 0x11	; 17
     6ae:	8f 16       	cp	r8, r31
     6b0:	91 04       	cpc	r9, r1
     6b2:	18 f0       	brcs	.+6      	; 0x6ba <do_writeram+0x6e>
     6b4:	80 e1       	ldi	r24, 0x10	; 16
     6b6:	68 2e       	mov	r6, r24
     6b8:	71 2c       	mov	r7, r1
     6ba:	36 2c       	mov	r3, r6
     6bc:	ba 82       	std	Y+2, r11	; 0x02
     6be:	a9 82       	std	Y+1, r10	; 0x01
     6c0:	bf 92       	push	r11
     6c2:	af 92       	push	r10
     6c4:	5f 92       	push	r5
     6c6:	4f 92       	push	r4
     6c8:	0e 94 0e 0a 	call	0x141c	; 0x141c <printf_P>
     6cc:	0f 90       	pop	r0
     6ce:	0f 90       	pop	r0
     6d0:	0f 90       	pop	r0
     6d2:	0f 90       	pop	r0
     6d4:	bc 82       	std	Y+4, r11	; 0x04
     6d6:	ab 82       	std	Y+3, r10	; 0x03
     6d8:	10 e0       	ldi	r17, 0x00	; 0
     6da:	18 c0       	rjmp	.+48     	; 0x70c <do_writeram+0xc0>
     6dc:	eb 81       	ldd	r30, Y+3	; 0x03
     6de:	fc 81       	ldd	r31, Y+4	; 0x04
     6e0:	80 81       	ld	r24, Z
     6e2:	1f 92       	push	r1
     6e4:	8f 93       	push	r24
     6e6:	ff 92       	push	r15
     6e8:	ef 92       	push	r14
     6ea:	0e 94 0e 0a 	call	0x141c	; 0x141c <printf_P>
     6ee:	0f 90       	pop	r0
     6f0:	0f 90       	pop	r0
     6f2:	0f 90       	pop	r0
     6f4:	0f 90       	pop	r0
     6f6:	1f 5f       	subi	r17, 0xFF	; 255
     6f8:	10 31       	cpi	r17, 0x10	; 16
     6fa:	99 f0       	breq	.+38     	; 0x722 <do_writeram+0xd6>
     6fc:	18 30       	cpi	r17, 0x08	; 8
     6fe:	09 f4       	brne	.+2      	; 0x702 <do_writeram+0xb6>
     700:	43 c0       	rjmp	.+134    	; 0x788 <do_writeram+0x13c>
     702:	8b 81       	ldd	r24, Y+3	; 0x03
     704:	9c 81       	ldd	r25, Y+4	; 0x04
     706:	01 96       	adiw	r24, 0x01	; 1
     708:	9c 83       	std	Y+4, r25	; 0x04
     70a:	8b 83       	std	Y+3, r24	; 0x03
     70c:	13 15       	cp	r17, r3
     70e:	30 f3       	brcs	.-52     	; 0x6dc <do_writeram+0x90>
     710:	df 92       	push	r13
     712:	cf 92       	push	r12
     714:	0e 94 0e 0a 	call	0x141c	; 0x141c <printf_P>
     718:	0f 90       	pop	r0
     71a:	0f 90       	pop	r0
     71c:	1f 5f       	subi	r17, 0xFF	; 255
     71e:	10 31       	cpi	r17, 0x10	; 16
     720:	69 f7       	brne	.-38     	; 0x6fc <do_writeram+0xb0>
     722:	60 91 7b 01 	lds	r22, 0x017B
     726:	70 91 7c 01 	lds	r23, 0x017C
     72a:	80 e2       	ldi	r24, 0x20	; 32
     72c:	90 e0       	ldi	r25, 0x00	; 0
     72e:	0e 94 e2 09 	call	0x13c4	; 0x13c4 <fputc>
     732:	33 20       	and	r3, r3
     734:	91 f1       	breq	.+100    	; 0x79a <do_writeram+0x14e>
     736:	21 2c       	mov	r2, r1
     738:	00 91 7b 01 	lds	r16, 0x017B
     73c:	10 91 7c 01 	lds	r17, 0x017C
     740:	e9 81       	ldd	r30, Y+1	; 0x01
     742:	fa 81       	ldd	r31, Y+2	; 0x02
     744:	21 91       	ld	r18, Z+
     746:	fa 83       	std	Y+2, r31	; 0x02
     748:	e9 83       	std	Y+1, r30	; 0x01
     74a:	30 e0       	ldi	r19, 0x00	; 0
     74c:	c9 01       	movw	r24, r18
     74e:	2d 83       	std	Y+5, r18	; 0x05
     750:	3e 83       	std	Y+6, r19	; 0x06
     752:	0e 94 94 09 	call	0x1328	; 0x1328 <isprint>
     756:	2d 81       	ldd	r18, Y+5	; 0x05
     758:	3e 81       	ldd	r19, Y+6	; 0x06
     75a:	89 2b       	or	r24, r25
     75c:	11 f4       	brne	.+4      	; 0x762 <do_writeram+0x116>
     75e:	2e e2       	ldi	r18, 0x2E	; 46
     760:	30 e0       	ldi	r19, 0x00	; 0
     762:	b8 01       	movw	r22, r16
     764:	c9 01       	movw	r24, r18
     766:	0e 94 e2 09 	call	0x13c4	; 0x13c4 <fputc>
     76a:	23 94       	inc	r2
     76c:	23 14       	cp	r2, r3
     76e:	a8 f4       	brcc	.+42     	; 0x79a <do_writeram+0x14e>
     770:	f8 e0       	ldi	r31, 0x08	; 8
     772:	2f 12       	cpse	r2, r31
     774:	e1 cf       	rjmp	.-62     	; 0x738 <do_writeram+0xec>
     776:	60 91 7b 01 	lds	r22, 0x017B
     77a:	70 91 7c 01 	lds	r23, 0x017C
     77e:	80 e2       	ldi	r24, 0x20	; 32
     780:	90 e0       	ldi	r25, 0x00	; 0
     782:	0e 94 e2 09 	call	0x13c4	; 0x13c4 <fputc>
     786:	d8 cf       	rjmp	.-80     	; 0x738 <do_writeram+0xec>
     788:	60 91 7b 01 	lds	r22, 0x017B
     78c:	70 91 7c 01 	lds	r23, 0x017C
     790:	80 e2       	ldi	r24, 0x20	; 32
     792:	90 e0       	ldi	r25, 0x00	; 0
     794:	0e 94 e2 09 	call	0x13c4	; 0x13c4 <fputc>
     798:	b4 cf       	rjmp	.-152    	; 0x702 <do_writeram+0xb6>
     79a:	60 91 7b 01 	lds	r22, 0x017B
     79e:	70 91 7c 01 	lds	r23, 0x017C
     7a2:	8a e0       	ldi	r24, 0x0A	; 10
     7a4:	90 e0       	ldi	r25, 0x00	; 0
     7a6:	0e 94 e2 09 	call	0x13c4	; 0x13c4 <fputc>
     7aa:	77 24       	eor	r7, r7
     7ac:	a6 0c       	add	r10, r6
     7ae:	b7 1c       	adc	r11, r7
     7b0:	86 18       	sub	r8, r6
     7b2:	97 08       	sbc	r9, r7
     7b4:	09 f0       	breq	.+2      	; 0x7b8 <do_writeram+0x16c>
     7b6:	79 cf       	rjmp	.-270    	; 0x6aa <do_writeram+0x5e>
     7b8:	26 96       	adiw	r28, 0x06	; 6
     7ba:	0f b6       	in	r0, 0x3f	; 63
     7bc:	f8 94       	cli
     7be:	de bf       	out	0x3e, r29	; 62
     7c0:	0f be       	out	0x3f, r0	; 63
     7c2:	cd bf       	out	0x3d, r28	; 61
     7c4:	df 91       	pop	r29
     7c6:	cf 91       	pop	r28
     7c8:	1f 91       	pop	r17
     7ca:	0f 91       	pop	r16
     7cc:	ff 90       	pop	r15
     7ce:	ef 90       	pop	r14
     7d0:	df 90       	pop	r13
     7d2:	cf 90       	pop	r12
     7d4:	bf 90       	pop	r11
     7d6:	af 90       	pop	r10
     7d8:	9f 90       	pop	r9
     7da:	8f 90       	pop	r8
     7dc:	7f 90       	pop	r7
     7de:	6f 90       	pop	r6
     7e0:	5f 90       	pop	r5
     7e2:	4f 90       	pop	r4
     7e4:	3f 90       	pop	r3
     7e6:	2f 90       	pop	r2
     7e8:	08 95       	ret
     7ea:	8e e5       	ldi	r24, 0x5E	; 94
     7ec:	91 e0       	ldi	r25, 0x01	; 1
     7ee:	9f 93       	push	r25
     7f0:	8f 93       	push	r24
     7f2:	0e 94 0e 0a 	call	0x141c	; 0x141c <printf_P>
     7f6:	0f 90       	pop	r0
     7f8:	0f 90       	pop	r0
     7fa:	de cf       	rjmp	.-68     	; 0x7b8 <do_writeram+0x16c>

000007fc <do_readflash>:
     7fc:	2f 92       	push	r2
     7fe:	3f 92       	push	r3
     800:	5f 92       	push	r5
     802:	6f 92       	push	r6
     804:	7f 92       	push	r7
     806:	8f 92       	push	r8
     808:	9f 92       	push	r9
     80a:	af 92       	push	r10
     80c:	bf 92       	push	r11
     80e:	cf 92       	push	r12
     810:	df 92       	push	r13
     812:	ef 92       	push	r14
     814:	ff 92       	push	r15
     816:	0f 93       	push	r16
     818:	1f 93       	push	r17
     81a:	cf 93       	push	r28
     81c:	df 93       	push	r29
     81e:	82 30       	cpi	r24, 0x02	; 2
     820:	08 f4       	brcc	.+2      	; 0x824 <do_readflash+0x28>
     822:	ae c0       	rjmp	.+348    	; 0x980 <__stack+0x81>
     824:	fb 01       	movw	r30, r22
     826:	a0 80       	ld	r10, Z
     828:	b1 80       	ldd	r11, Z+1	; 0x01
     82a:	84 80       	ldd	r8, Z+4	; 0x04
     82c:	95 80       	ldd	r9, Z+5	; 0x05
     82e:	81 14       	cp	r8, r1
     830:	91 04       	cpc	r9, r1
     832:	09 f4       	brne	.+2      	; 0x836 <do_readflash+0x3a>
     834:	80 c0       	rjmp	.+256    	; 0x936 <__stack+0x37>
     836:	5a e5       	ldi	r21, 0x5A	; 90
     838:	c5 2e       	mov	r12, r21
     83a:	51 e0       	ldi	r21, 0x01	; 1
     83c:	d5 2e       	mov	r13, r21
     83e:	64 e5       	ldi	r22, 0x54	; 84
     840:	e6 2e       	mov	r14, r22
     842:	61 e0       	ldi	r22, 0x01	; 1
     844:	f6 2e       	mov	r15, r22
     846:	34 01       	movw	r6, r8
     848:	f1 e1       	ldi	r31, 0x11	; 17
     84a:	8f 16       	cp	r8, r31
     84c:	91 04       	cpc	r9, r1
     84e:	18 f0       	brcs	.+6      	; 0x856 <do_readflash+0x5a>
     850:	40 e1       	ldi	r20, 0x10	; 16
     852:	64 2e       	mov	r6, r20
     854:	71 2c       	mov	r7, r1
     856:	36 2c       	mov	r3, r6
     858:	85 01       	movw	r16, r10
     85a:	bf 92       	push	r11
     85c:	af 92       	push	r10
     85e:	8d e4       	ldi	r24, 0x4D	; 77
     860:	91 e0       	ldi	r25, 0x01	; 1
     862:	9f 93       	push	r25
     864:	8f 93       	push	r24
     866:	0e 94 0e 0a 	call	0x141c	; 0x141c <printf_P>
     86a:	0f 90       	pop	r0
     86c:	0f 90       	pop	r0
     86e:	0f 90       	pop	r0
     870:	0f 90       	pop	r0
     872:	e5 01       	movw	r28, r10
     874:	21 2c       	mov	r2, r1
     876:	23 14       	cp	r2, r3
     878:	b8 f4       	brcc	.+46     	; 0x8a8 <do_readflash+0xac>
     87a:	fe 01       	movw	r30, r28
     87c:	84 91       	lpm	r24, Z
     87e:	1f 92       	push	r1
     880:	8f 93       	push	r24
     882:	ff 92       	push	r15
     884:	ef 92       	push	r14
     886:	0e 94 0e 0a 	call	0x141c	; 0x141c <printf_P>
     88a:	0f 90       	pop	r0
     88c:	0f 90       	pop	r0
     88e:	0f 90       	pop	r0
     890:	0f 90       	pop	r0
     892:	23 94       	inc	r2
     894:	f0 e1       	ldi	r31, 0x10	; 16
     896:	2f 16       	cp	r2, r31
     898:	89 f0       	breq	.+34     	; 0x8bc <do_readflash+0xc0>
     89a:	f8 e0       	ldi	r31, 0x08	; 8
     89c:	2f 16       	cp	r2, r31
     89e:	09 f4       	brne	.+2      	; 0x8a2 <do_readflash+0xa6>
     8a0:	5c c0       	rjmp	.+184    	; 0x95a <__stack+0x5b>
     8a2:	21 96       	adiw	r28, 0x01	; 1
     8a4:	23 14       	cp	r2, r3
     8a6:	48 f3       	brcs	.-46     	; 0x87a <do_readflash+0x7e>
     8a8:	df 92       	push	r13
     8aa:	cf 92       	push	r12
     8ac:	0e 94 0e 0a 	call	0x141c	; 0x141c <printf_P>
     8b0:	0f 90       	pop	r0
     8b2:	0f 90       	pop	r0
     8b4:	23 94       	inc	r2
     8b6:	f0 e1       	ldi	r31, 0x10	; 16
     8b8:	2f 12       	cpse	r2, r31
     8ba:	ef cf       	rjmp	.-34     	; 0x89a <do_readflash+0x9e>
     8bc:	60 91 7b 01 	lds	r22, 0x017B
     8c0:	70 91 7c 01 	lds	r23, 0x017C
     8c4:	80 e2       	ldi	r24, 0x20	; 32
     8c6:	90 e0       	ldi	r25, 0x00	; 0
     8c8:	0e 94 e2 09 	call	0x13c4	; 0x13c4 <fputc>
     8cc:	33 20       	and	r3, r3
     8ce:	21 f1       	breq	.+72     	; 0x918 <__stack+0x19>
     8d0:	21 2c       	mov	r2, r1
     8d2:	0e c0       	rjmp	.+28     	; 0x8f0 <do_readflash+0xf4>
     8d4:	85 2d       	mov	r24, r5
     8d6:	90 e0       	ldi	r25, 0x00	; 0
     8d8:	be 01       	movw	r22, r28
     8da:	0e 94 e2 09 	call	0x13c4	; 0x13c4 <fputc>
     8de:	23 94       	inc	r2
     8e0:	23 14       	cp	r2, r3
     8e2:	d0 f4       	brcc	.+52     	; 0x918 <__stack+0x19>
     8e4:	28 e0       	ldi	r18, 0x08	; 8
     8e6:	22 16       	cp	r2, r18
     8e8:	09 f4       	brne	.+2      	; 0x8ec <do_readflash+0xf0>
     8ea:	41 c0       	rjmp	.+130    	; 0x96e <__stack+0x6f>
     8ec:	0f 5f       	subi	r16, 0xFF	; 255
     8ee:	1f 4f       	sbci	r17, 0xFF	; 255
     8f0:	c0 91 7b 01 	lds	r28, 0x017B
     8f4:	d0 91 7c 01 	lds	r29, 0x017C
     8f8:	f8 01       	movw	r30, r16
     8fa:	54 90       	lpm	r5, Z
     8fc:	85 2d       	mov	r24, r5
     8fe:	90 e0       	ldi	r25, 0x00	; 0
     900:	0e 94 94 09 	call	0x1328	; 0x1328 <isprint>
     904:	89 2b       	or	r24, r25
     906:	31 f7       	brne	.-52     	; 0x8d4 <do_readflash+0xd8>
     908:	8e e2       	ldi	r24, 0x2E	; 46
     90a:	90 e0       	ldi	r25, 0x00	; 0
     90c:	be 01       	movw	r22, r28
     90e:	0e 94 e2 09 	call	0x13c4	; 0x13c4 <fputc>
     912:	23 94       	inc	r2
     914:	23 14       	cp	r2, r3
     916:	30 f3       	brcs	.-52     	; 0x8e4 <do_readflash+0xe8>
     918:	60 91 7b 01 	lds	r22, 0x017B
     91c:	70 91 7c 01 	lds	r23, 0x017C
     920:	8a e0       	ldi	r24, 0x0A	; 10
     922:	90 e0       	ldi	r25, 0x00	; 0
     924:	0e 94 e2 09 	call	0x13c4	; 0x13c4 <fputc>
     928:	77 24       	eor	r7, r7
     92a:	a6 0c       	add	r10, r6
     92c:	b7 1c       	adc	r11, r7
     92e:	86 18       	sub	r8, r6
     930:	97 08       	sbc	r9, r7
     932:	09 f0       	breq	.+2      	; 0x936 <__stack+0x37>
     934:	88 cf       	rjmp	.-240    	; 0x846 <do_readflash+0x4a>
     936:	df 91       	pop	r29
     938:	cf 91       	pop	r28
     93a:	1f 91       	pop	r17
     93c:	0f 91       	pop	r16
     93e:	ff 90       	pop	r15
     940:	ef 90       	pop	r14
     942:	df 90       	pop	r13
     944:	cf 90       	pop	r12
     946:	bf 90       	pop	r11
     948:	af 90       	pop	r10
     94a:	9f 90       	pop	r9
     94c:	8f 90       	pop	r8
     94e:	7f 90       	pop	r7
     950:	6f 90       	pop	r6
     952:	5f 90       	pop	r5
     954:	3f 90       	pop	r3
     956:	2f 90       	pop	r2
     958:	08 95       	ret
     95a:	60 91 7b 01 	lds	r22, 0x017B
     95e:	70 91 7c 01 	lds	r23, 0x017C
     962:	80 e2       	ldi	r24, 0x20	; 32
     964:	90 e0       	ldi	r25, 0x00	; 0
     966:	0e 94 e2 09 	call	0x13c4	; 0x13c4 <fputc>
     96a:	21 96       	adiw	r28, 0x01	; 1
     96c:	9b cf       	rjmp	.-202    	; 0x8a4 <do_readflash+0xa8>
     96e:	60 91 7b 01 	lds	r22, 0x017B
     972:	70 91 7c 01 	lds	r23, 0x017C
     976:	80 e2       	ldi	r24, 0x20	; 32
     978:	90 e0       	ldi	r25, 0x00	; 0
     97a:	0e 94 e2 09 	call	0x13c4	; 0x13c4 <fputc>
     97e:	b6 cf       	rjmp	.-148    	; 0x8ec <do_readflash+0xf0>
     980:	82 e3       	ldi	r24, 0x32	; 50
     982:	91 e0       	ldi	r25, 0x01	; 1
     984:	9f 93       	push	r25
     986:	8f 93       	push	r24
     988:	0e 94 0e 0a 	call	0x141c	; 0x141c <printf_P>
     98c:	0f 90       	pop	r0
     98e:	0f 90       	pop	r0
     990:	d2 cf       	rjmp	.-92     	; 0x936 <__stack+0x37>

00000992 <do_readram>:
     992:	2f 92       	push	r2
     994:	3f 92       	push	r3
     996:	4f 92       	push	r4
     998:	5f 92       	push	r5
     99a:	6f 92       	push	r6
     99c:	7f 92       	push	r7
     99e:	8f 92       	push	r8
     9a0:	9f 92       	push	r9
     9a2:	af 92       	push	r10
     9a4:	bf 92       	push	r11
     9a6:	cf 92       	push	r12
     9a8:	df 92       	push	r13
     9aa:	ef 92       	push	r14
     9ac:	ff 92       	push	r15
     9ae:	0f 93       	push	r16
     9b0:	1f 93       	push	r17
     9b2:	cf 93       	push	r28
     9b4:	df 93       	push	r29
     9b6:	00 d0       	rcall	.+0      	; 0x9b8 <do_readram+0x26>
     9b8:	00 d0       	rcall	.+0      	; 0x9ba <do_readram+0x28>
     9ba:	00 d0       	rcall	.+0      	; 0x9bc <do_readram+0x2a>
     9bc:	cd b7       	in	r28, 0x3d	; 61
     9be:	de b7       	in	r29, 0x3e	; 62
     9c0:	81 11       	cpse	r24, r1
     9c2:	21 c0       	rjmp	.+66     	; 0xa06 <do_readram+0x74>
     9c4:	84 e0       	ldi	r24, 0x04	; 4
     9c6:	91 e0       	ldi	r25, 0x01	; 1
     9c8:	9f 93       	push	r25
     9ca:	8f 93       	push	r24
     9cc:	0e 94 0e 0a 	call	0x141c	; 0x141c <printf_P>
     9d0:	0f 90       	pop	r0
     9d2:	0f 90       	pop	r0
     9d4:	26 96       	adiw	r28, 0x06	; 6
     9d6:	0f b6       	in	r0, 0x3f	; 63
     9d8:	f8 94       	cli
     9da:	de bf       	out	0x3e, r29	; 62
     9dc:	0f be       	out	0x3f, r0	; 63
     9de:	cd bf       	out	0x3d, r28	; 61
     9e0:	df 91       	pop	r29
     9e2:	cf 91       	pop	r28
     9e4:	1f 91       	pop	r17
     9e6:	0f 91       	pop	r16
     9e8:	ff 90       	pop	r15
     9ea:	ef 90       	pop	r14
     9ec:	df 90       	pop	r13
     9ee:	cf 90       	pop	r12
     9f0:	bf 90       	pop	r11
     9f2:	af 90       	pop	r10
     9f4:	9f 90       	pop	r9
     9f6:	8f 90       	pop	r8
     9f8:	7f 90       	pop	r7
     9fa:	6f 90       	pop	r6
     9fc:	5f 90       	pop	r5
     9fe:	4f 90       	pop	r4
     a00:	3f 90       	pop	r3
     a02:	2f 90       	pop	r2
     a04:	08 95       	ret
     a06:	81 30       	cpi	r24, 0x01	; 1
     a08:	09 f4       	brne	.+2      	; 0xa0c <do_readram+0x7a>
     a0a:	83 c0       	rjmp	.+262    	; 0xb12 <do_readram+0x180>
     a0c:	fb 01       	movw	r30, r22
     a0e:	84 80       	ldd	r8, Z+4	; 0x04
     a10:	95 80       	ldd	r9, Z+5	; 0x05
     a12:	a0 80       	ld	r10, Z
     a14:	b1 80       	ldd	r11, Z+1	; 0x01
     a16:	81 14       	cp	r8, r1
     a18:	91 04       	cpc	r9, r1
     a1a:	e1 f2       	breq	.-72     	; 0x9d4 <do_readram+0x42>
     a1c:	f1 e2       	ldi	r31, 0x21	; 33
     a1e:	4f 2e       	mov	r4, r31
     a20:	f1 e0       	ldi	r31, 0x01	; 1
     a22:	5f 2e       	mov	r5, r31
     a24:	ae e2       	ldi	r26, 0x2E	; 46
     a26:	ca 2e       	mov	r12, r26
     a28:	a1 e0       	ldi	r26, 0x01	; 1
     a2a:	da 2e       	mov	r13, r26
     a2c:	b8 e2       	ldi	r27, 0x28	; 40
     a2e:	eb 2e       	mov	r14, r27
     a30:	b1 e0       	ldi	r27, 0x01	; 1
     a32:	fb 2e       	mov	r15, r27
     a34:	34 01       	movw	r6, r8
     a36:	f1 e1       	ldi	r31, 0x11	; 17
     a38:	8f 16       	cp	r8, r31
     a3a:	91 04       	cpc	r9, r1
     a3c:	18 f0       	brcs	.+6      	; 0xa44 <do_readram+0xb2>
     a3e:	e0 e1       	ldi	r30, 0x10	; 16
     a40:	6e 2e       	mov	r6, r30
     a42:	71 2c       	mov	r7, r1
     a44:	36 2c       	mov	r3, r6
     a46:	ba 82       	std	Y+2, r11	; 0x02
     a48:	a9 82       	std	Y+1, r10	; 0x01
     a4a:	bf 92       	push	r11
     a4c:	af 92       	push	r10
     a4e:	5f 92       	push	r5
     a50:	4f 92       	push	r4
     a52:	0e 94 0e 0a 	call	0x141c	; 0x141c <printf_P>
     a56:	0f 90       	pop	r0
     a58:	0f 90       	pop	r0
     a5a:	0f 90       	pop	r0
     a5c:	0f 90       	pop	r0
     a5e:	bc 82       	std	Y+4, r11	; 0x04
     a60:	ab 82       	std	Y+3, r10	; 0x03
     a62:	10 e0       	ldi	r17, 0x00	; 0
     a64:	18 c0       	rjmp	.+48     	; 0xa96 <do_readram+0x104>
     a66:	eb 81       	ldd	r30, Y+3	; 0x03
     a68:	fc 81       	ldd	r31, Y+4	; 0x04
     a6a:	80 81       	ld	r24, Z
     a6c:	1f 92       	push	r1
     a6e:	8f 93       	push	r24
     a70:	ff 92       	push	r15
     a72:	ef 92       	push	r14
     a74:	0e 94 0e 0a 	call	0x141c	; 0x141c <printf_P>
     a78:	0f 90       	pop	r0
     a7a:	0f 90       	pop	r0
     a7c:	0f 90       	pop	r0
     a7e:	0f 90       	pop	r0
     a80:	1f 5f       	subi	r17, 0xFF	; 255
     a82:	10 31       	cpi	r17, 0x10	; 16
     a84:	99 f0       	breq	.+38     	; 0xaac <do_readram+0x11a>
     a86:	18 30       	cpi	r17, 0x08	; 8
     a88:	09 f4       	brne	.+2      	; 0xa8c <do_readram+0xfa>
     a8a:	4a c0       	rjmp	.+148    	; 0xb20 <do_readram+0x18e>
     a8c:	8b 81       	ldd	r24, Y+3	; 0x03
     a8e:	9c 81       	ldd	r25, Y+4	; 0x04
     a90:	01 96       	adiw	r24, 0x01	; 1
     a92:	9c 83       	std	Y+4, r25	; 0x04
     a94:	8b 83       	std	Y+3, r24	; 0x03
     a96:	13 15       	cp	r17, r3
     a98:	30 f3       	brcs	.-52     	; 0xa66 <do_readram+0xd4>
     a9a:	df 92       	push	r13
     a9c:	cf 92       	push	r12
     a9e:	0e 94 0e 0a 	call	0x141c	; 0x141c <printf_P>
     aa2:	0f 90       	pop	r0
     aa4:	0f 90       	pop	r0
     aa6:	1f 5f       	subi	r17, 0xFF	; 255
     aa8:	10 31       	cpi	r17, 0x10	; 16
     aaa:	69 f7       	brne	.-38     	; 0xa86 <do_readram+0xf4>
     aac:	60 91 7b 01 	lds	r22, 0x017B
     ab0:	70 91 7c 01 	lds	r23, 0x017C
     ab4:	80 e2       	ldi	r24, 0x20	; 32
     ab6:	90 e0       	ldi	r25, 0x00	; 0
     ab8:	0e 94 e2 09 	call	0x13c4	; 0x13c4 <fputc>
     abc:	33 20       	and	r3, r3
     abe:	c9 f1       	breq	.+114    	; 0xb32 <do_readram+0x1a0>
     ac0:	21 2c       	mov	r2, r1
     ac2:	00 91 7b 01 	lds	r16, 0x017B
     ac6:	10 91 7c 01 	lds	r17, 0x017C
     aca:	e9 81       	ldd	r30, Y+1	; 0x01
     acc:	fa 81       	ldd	r31, Y+2	; 0x02
     ace:	21 91       	ld	r18, Z+
     ad0:	fa 83       	std	Y+2, r31	; 0x02
     ad2:	e9 83       	std	Y+1, r30	; 0x01
     ad4:	30 e0       	ldi	r19, 0x00	; 0
     ad6:	c9 01       	movw	r24, r18
     ad8:	2d 83       	std	Y+5, r18	; 0x05
     ada:	3e 83       	std	Y+6, r19	; 0x06
     adc:	0e 94 94 09 	call	0x1328	; 0x1328 <isprint>
     ae0:	2d 81       	ldd	r18, Y+5	; 0x05
     ae2:	3e 81       	ldd	r19, Y+6	; 0x06
     ae4:	89 2b       	or	r24, r25
     ae6:	11 f4       	brne	.+4      	; 0xaec <do_readram+0x15a>
     ae8:	2e e2       	ldi	r18, 0x2E	; 46
     aea:	30 e0       	ldi	r19, 0x00	; 0
     aec:	b8 01       	movw	r22, r16
     aee:	c9 01       	movw	r24, r18
     af0:	0e 94 e2 09 	call	0x13c4	; 0x13c4 <fputc>
     af4:	23 94       	inc	r2
     af6:	23 14       	cp	r2, r3
     af8:	e0 f4       	brcc	.+56     	; 0xb32 <do_readram+0x1a0>
     afa:	f8 e0       	ldi	r31, 0x08	; 8
     afc:	2f 12       	cpse	r2, r31
     afe:	e1 cf       	rjmp	.-62     	; 0xac2 <do_readram+0x130>
     b00:	60 91 7b 01 	lds	r22, 0x017B
     b04:	70 91 7c 01 	lds	r23, 0x017C
     b08:	80 e2       	ldi	r24, 0x20	; 32
     b0a:	90 e0       	ldi	r25, 0x00	; 0
     b0c:	0e 94 e2 09 	call	0x13c4	; 0x13c4 <fputc>
     b10:	d8 cf       	rjmp	.-80     	; 0xac2 <do_readram+0x130>
     b12:	fb 01       	movw	r30, r22
     b14:	a0 80       	ld	r10, Z
     b16:	b1 80       	ldd	r11, Z+1	; 0x01
     b18:	88 24       	eor	r8, r8
     b1a:	83 94       	inc	r8
     b1c:	91 2c       	mov	r9, r1
     b1e:	7e cf       	rjmp	.-260    	; 0xa1c <do_readram+0x8a>
     b20:	60 91 7b 01 	lds	r22, 0x017B
     b24:	70 91 7c 01 	lds	r23, 0x017C
     b28:	80 e2       	ldi	r24, 0x20	; 32
     b2a:	90 e0       	ldi	r25, 0x00	; 0
     b2c:	0e 94 e2 09 	call	0x13c4	; 0x13c4 <fputc>
     b30:	ad cf       	rjmp	.-166    	; 0xa8c <do_readram+0xfa>
     b32:	60 91 7b 01 	lds	r22, 0x017B
     b36:	70 91 7c 01 	lds	r23, 0x017C
     b3a:	8a e0       	ldi	r24, 0x0A	; 10
     b3c:	90 e0       	ldi	r25, 0x00	; 0
     b3e:	0e 94 e2 09 	call	0x13c4	; 0x13c4 <fputc>
     b42:	77 24       	eor	r7, r7
     b44:	a6 0c       	add	r10, r6
     b46:	b7 1c       	adc	r11, r7
     b48:	86 18       	sub	r8, r6
     b4a:	97 08       	sbc	r9, r7
     b4c:	09 f0       	breq	.+2      	; 0xb50 <do_readram+0x1be>
     b4e:	72 cf       	rjmp	.-284    	; 0xa34 <do_readram+0xa2>
     b50:	41 cf       	rjmp	.-382    	; 0x9d4 <do_readram+0x42>

00000b52 <cmdline>:
     b52:	81 2c       	mov	r8, r1
     b54:	91 2c       	mov	r9, r1
     b56:	54 01       	movw	r10, r8
     b58:	74 e0       	ldi	r23, 0x04	; 4
     b5a:	27 2e       	mov	r2, r23
     b5c:	e2 e0       	ldi	r30, 0x02	; 2
     b5e:	f1 e0       	ldi	r31, 0x01	; 1
     b60:	c5 90       	lpm	r12, Z+
     b62:	d4 90       	lpm	r13, Z
     b64:	e2 e0       	ldi	r30, 0x02	; 2
     b66:	3e 2e       	mov	r3, r30
     b68:	ee ef       	ldi	r30, 0xFE	; 254
     b6a:	f0 e0       	ldi	r31, 0x00	; 0
     b6c:	e5 90       	lpm	r14, Z+
     b6e:	f4 90       	lpm	r15, Z
     b70:	e0 e0       	ldi	r30, 0x00	; 0
     b72:	f1 e0       	ldi	r31, 0x01	; 1
     b74:	05 91       	lpm	r16, Z+
     b76:	14 91       	lpm	r17, Z
     b78:	ec ef       	ldi	r30, 0xFC	; 252
     b7a:	f0 e0       	ldi	r31, 0x00	; 0
     b7c:	45 90       	lpm	r4, Z+
     b7e:	54 90       	lpm	r5, Z
     b80:	8e ee       	ldi	r24, 0xEE	; 238
     b82:	91 e0       	ldi	r25, 0x01	; 1
     b84:	9f 93       	push	r25
     b86:	8f 93       	push	r24
     b88:	0e 94 0e 0a 	call	0x141c	; 0x141c <printf_P>
     b8c:	0f 90       	pop	r0
     b8e:	0f 90       	pop	r0
     b90:	d5 e1       	ldi	r29, 0x15	; 21
     b92:	c3 e0       	ldi	r28, 0x03	; 3
     b94:	80 91 79 01 	lds	r24, 0x0179
     b98:	90 91 7a 01 	lds	r25, 0x017A
     b9c:	0e 94 a2 09 	call	0x1344	; 0x1344 <fgetc>
     ba0:	0e 94 9a 09 	call	0x1334	; 0x1334 <tolower>
     ba4:	3c 01       	movw	r6, r24
     ba6:	8f 3f       	cpi	r24, 0xFF	; 255
     ba8:	2f ef       	ldi	r18, 0xFF	; 255
     baa:	92 07       	cpc	r25, r18
     bac:	99 f3       	breq	.-26     	; 0xb94 <cmdline+0x42>
     bae:	38 2f       	mov	r19, r24
     bb0:	28 2f       	mov	r18, r24
     bb2:	8d 2f       	mov	r24, r29
     bb4:	90 e0       	ldi	r25, 0x00	; 0
     bb6:	fc 01       	movw	r30, r24
     bb8:	31 97       	sbiw	r30, 0x01	; 1
     bba:	e5 31       	cpi	r30, 0x15	; 21
     bbc:	f1 05       	cpc	r31, r1
     bbe:	00 f7       	brcc	.-64     	; 0xb80 <cmdline+0x2e>
     bc0:	ec 5c       	subi	r30, 0xCC	; 204
     bc2:	ff 4f       	sbci	r31, 0xFF	; 255
     bc4:	0c 94 8c 09 	jmp	0x1318	; 0x1318 <__tablejump2__>
     bc8:	3f 36       	cpi	r19, 0x6F	; 111
     bca:	09 f4       	brne	.+2      	; 0xbce <cmdline+0x7c>
     bcc:	0f c2       	rjmp	.+1054   	; 0xfec <cmdline+0x49a>
     bce:	38 37       	cpi	r19, 0x78	; 120
     bd0:	09 f4       	brne	.+2      	; 0xbd4 <cmdline+0x82>
     bd2:	a3 c1       	rjmp	.+838    	; 0xf1a <cmdline+0x3c8>
     bd4:	30 53       	subi	r19, 0x30	; 48
     bd6:	38 30       	cpi	r19, 0x08	; 8
     bd8:	08 f0       	brcs	.+2      	; 0xbdc <cmdline+0x8a>
     bda:	55 c0       	rjmp	.+170    	; 0xc86 <cmdline+0x134>
     bdc:	d5 01       	movw	r26, r10
     bde:	c4 01       	movw	r24, r8
     be0:	88 0f       	add	r24, r24
     be2:	99 1f       	adc	r25, r25
     be4:	aa 1f       	adc	r26, r26
     be6:	bb 1f       	adc	r27, r27
     be8:	88 0f       	add	r24, r24
     bea:	99 1f       	adc	r25, r25
     bec:	aa 1f       	adc	r26, r26
     bee:	bb 1f       	adc	r27, r27
     bf0:	88 0f       	add	r24, r24
     bf2:	99 1f       	adc	r25, r25
     bf4:	aa 1f       	adc	r26, r26
     bf6:	bb 1f       	adc	r27, r27
     bf8:	82 2e       	mov	r8, r18
     bfa:	99 24       	eor	r9, r9
     bfc:	87 fc       	sbrc	r8, 7
     bfe:	90 94       	com	r9
     c00:	f0 e3       	ldi	r31, 0x30	; 48
     c02:	8f 1a       	sub	r8, r31
     c04:	91 08       	sbc	r9, r1
     c06:	aa 24       	eor	r10, r10
     c08:	97 fc       	sbrc	r9, 7
     c0a:	a0 94       	com	r10
     c0c:	ba 2c       	mov	r11, r10
     c0e:	88 0e       	add	r8, r24
     c10:	99 1e       	adc	r9, r25
     c12:	aa 1e       	adc	r10, r26
     c14:	bb 1e       	adc	r11, r27
     c16:	d8 e0       	ldi	r29, 0x08	; 8
     c18:	bd cf       	rjmp	.-134    	; 0xb94 <cmdline+0x42>
     c1a:	3a 30       	cpi	r19, 0x0A	; 10
     c1c:	09 f4       	brne	.+2      	; 0xc20 <cmdline+0xce>
     c1e:	34 c1       	rjmp	.+616    	; 0xe88 <cmdline+0x336>
     c20:	30 32       	cpi	r19, 0x20	; 32
     c22:	09 f4       	brne	.+2      	; 0xc26 <cmdline+0xd4>
     c24:	88 c0       	rjmp	.+272    	; 0xd36 <cmdline+0x1e4>
     c26:	30 53       	subi	r19, 0x30	; 48
     c28:	3a 30       	cpi	r19, 0x0A	; 10
     c2a:	68 f5       	brcc	.+90     	; 0xc86 <cmdline+0x134>
     c2c:	88 0c       	add	r8, r8
     c2e:	99 1c       	adc	r9, r9
     c30:	aa 1c       	adc	r10, r10
     c32:	bb 1c       	adc	r11, r11
     c34:	d5 01       	movw	r26, r10
     c36:	c4 01       	movw	r24, r8
     c38:	88 0f       	add	r24, r24
     c3a:	99 1f       	adc	r25, r25
     c3c:	aa 1f       	adc	r26, r26
     c3e:	bb 1f       	adc	r27, r27
     c40:	88 0f       	add	r24, r24
     c42:	99 1f       	adc	r25, r25
     c44:	aa 1f       	adc	r26, r26
     c46:	bb 1f       	adc	r27, r27
     c48:	88 0d       	add	r24, r8
     c4a:	99 1d       	adc	r25, r9
     c4c:	aa 1d       	adc	r26, r10
     c4e:	bb 1d       	adc	r27, r11
     c50:	82 2e       	mov	r8, r18
     c52:	99 24       	eor	r9, r9
     c54:	87 fc       	sbrc	r8, 7
     c56:	90 94       	com	r9
     c58:	e0 e3       	ldi	r30, 0x30	; 48
     c5a:	8e 1a       	sub	r8, r30
     c5c:	91 08       	sbc	r9, r1
     c5e:	aa 24       	eor	r10, r10
     c60:	97 fc       	sbrc	r9, 7
     c62:	a0 94       	com	r10
     c64:	ba 2c       	mov	r11, r10
     c66:	88 0e       	add	r8, r24
     c68:	99 1e       	adc	r9, r25
     c6a:	aa 1e       	adc	r10, r26
     c6c:	bb 1e       	adc	r11, r27
     c6e:	dc e0       	ldi	r29, 0x0C	; 12
     c70:	91 cf       	rjmp	.-222    	; 0xb94 <cmdline+0x42>
     c72:	3a 30       	cpi	r19, 0x0A	; 10
     c74:	09 f4       	brne	.+2      	; 0xc78 <cmdline+0x126>
     c76:	08 c1       	rjmp	.+528    	; 0xe88 <cmdline+0x336>
     c78:	30 32       	cpi	r19, 0x20	; 32
     c7a:	09 f4       	brne	.+2      	; 0xc7e <cmdline+0x12c>
     c7c:	5c c0       	rjmp	.+184    	; 0xd36 <cmdline+0x1e4>
     c7e:	30 53       	subi	r19, 0x30	; 48
     c80:	32 30       	cpi	r19, 0x02	; 2
     c82:	08 f4       	brcc	.+2      	; 0xc86 <cmdline+0x134>
     c84:	4c c1       	rjmp	.+664    	; 0xf1e <cmdline+0x3cc>
     c86:	80 91 67 01 	lds	r24, 0x0167
     c8a:	81 11       	cpse	r24, r1
     c8c:	e4 c0       	rjmp	.+456    	; 0xe56 <cmdline+0x304>
     c8e:	88 ef       	ldi	r24, 0xF8	; 248
     c90:	91 e0       	ldi	r25, 0x01	; 1
     c92:	9f 93       	push	r25
     c94:	8f 93       	push	r24
     c96:	0e 94 0e 0a 	call	0x141c	; 0x141c <printf_P>
     c9a:	0f 90       	pop	r0
     c9c:	0f 90       	pop	r0
     c9e:	fa e0       	ldi	r31, 0x0A	; 10
     ca0:	6f 16       	cp	r6, r31
     ca2:	71 04       	cpc	r7, r1
     ca4:	09 f4       	brne	.+2      	; 0xca8 <cmdline+0x156>
     ca6:	6c cf       	rjmp	.-296    	; 0xb80 <cmdline+0x2e>
     ca8:	80 91 79 01 	lds	r24, 0x0179
     cac:	90 91 7a 01 	lds	r25, 0x017A
     cb0:	0e 94 a2 09 	call	0x1344	; 0x1344 <fgetc>
     cb4:	0a 97       	sbiw	r24, 0x0a	; 10
     cb6:	c1 f7       	brne	.-16     	; 0xca8 <cmdline+0x156>
     cb8:	63 cf       	rjmp	.-314    	; 0xb80 <cmdline+0x2e>
     cba:	3a 30       	cpi	r19, 0x0A	; 10
     cbc:	09 f4       	brne	.+2      	; 0xcc0 <cmdline+0x16e>
     cbe:	e4 c0       	rjmp	.+456    	; 0xe88 <cmdline+0x336>
     cc0:	30 32       	cpi	r19, 0x20	; 32
     cc2:	c9 f1       	breq	.+114    	; 0xd36 <cmdline+0x1e4>
     cc4:	2a 33       	cpi	r18, 0x3A	; 58
     cc6:	0c f4       	brge	.+2      	; 0xcca <cmdline+0x178>
     cc8:	0b c1       	rjmp	.+534    	; 0xee0 <cmdline+0x38e>
     cca:	31 56       	subi	r19, 0x61	; 97
     ccc:	36 30       	cpi	r19, 0x06	; 6
     cce:	d8 f6       	brcc	.-74     	; 0xc86 <cmdline+0x134>
     cd0:	d5 01       	movw	r26, r10
     cd2:	c4 01       	movw	r24, r8
     cd4:	88 0f       	add	r24, r24
     cd6:	99 1f       	adc	r25, r25
     cd8:	aa 1f       	adc	r26, r26
     cda:	bb 1f       	adc	r27, r27
     cdc:	88 0f       	add	r24, r24
     cde:	99 1f       	adc	r25, r25
     ce0:	aa 1f       	adc	r26, r26
     ce2:	bb 1f       	adc	r27, r27
     ce4:	88 0f       	add	r24, r24
     ce6:	99 1f       	adc	r25, r25
     ce8:	aa 1f       	adc	r26, r26
     cea:	bb 1f       	adc	r27, r27
     cec:	88 0f       	add	r24, r24
     cee:	99 1f       	adc	r25, r25
     cf0:	aa 1f       	adc	r26, r26
     cf2:	bb 1f       	adc	r27, r27
     cf4:	82 2e       	mov	r8, r18
     cf6:	99 24       	eor	r9, r9
     cf8:	87 fc       	sbrc	r8, 7
     cfa:	90 94       	com	r9
     cfc:	27 e5       	ldi	r18, 0x57	; 87
     cfe:	82 1a       	sub	r8, r18
     d00:	91 08       	sbc	r9, r1
     d02:	aa 24       	eor	r10, r10
     d04:	97 fc       	sbrc	r9, 7
     d06:	a0 94       	com	r10
     d08:	ba 2c       	mov	r11, r10
     d0a:	88 0e       	add	r8, r24
     d0c:	99 1e       	adc	r9, r25
     d0e:	aa 1e       	adc	r10, r26
     d10:	bb 1e       	adc	r11, r27
     d12:	df e0       	ldi	r29, 0x0F	; 15
     d14:	3f cf       	rjmp	.-386    	; 0xb94 <cmdline+0x42>
     d16:	34 36       	cpi	r19, 0x64	; 100
     d18:	09 f4       	brne	.+2      	; 0xd1c <cmdline+0x1ca>
     d1a:	6c c1       	rjmp	.+728    	; 0xff4 <cmdline+0x4a2>
     d1c:	0c f0       	brlt	.+2      	; 0xd20 <cmdline+0x1ce>
     d1e:	54 cf       	rjmp	.-344    	; 0xbc8 <cmdline+0x76>
     d20:	32 36       	cpi	r19, 0x62	; 98
     d22:	09 f4       	brne	.+2      	; 0xd26 <cmdline+0x1d4>
     d24:	65 c1       	rjmp	.+714    	; 0xff0 <cmdline+0x49e>
     d26:	0c f0       	brlt	.+2      	; 0xd2a <cmdline+0x1d8>
     d28:	55 cf       	rjmp	.-342    	; 0xbd4 <cmdline+0x82>
     d2a:	2a 30       	cpi	r18, 0x0A	; 10
     d2c:	09 f4       	brne	.+2      	; 0xd30 <cmdline+0x1de>
     d2e:	ac c0       	rjmp	.+344    	; 0xe88 <cmdline+0x336>
     d30:	20 32       	cpi	r18, 0x20	; 32
     d32:	09 f0       	breq	.+2      	; 0xd36 <cmdline+0x1e4>
     d34:	4f cf       	rjmp	.-354    	; 0xbd4 <cmdline+0x82>
     d36:	80 91 68 01 	lds	r24, 0x0168
     d3a:	84 30       	cpi	r24, 0x04	; 4
     d3c:	08 f0       	brcs	.+2      	; 0xd40 <cmdline+0x1ee>
     d3e:	c5 c0       	rjmp	.+394    	; 0xeca <cmdline+0x378>
     d40:	e8 2f       	mov	r30, r24
     d42:	f0 e0       	ldi	r31, 0x00	; 0
     d44:	ee 0f       	add	r30, r30
     d46:	ff 1f       	adc	r31, r31
     d48:	ee 0f       	add	r30, r30
     d4a:	ff 1f       	adc	r31, r31
     d4c:	e7 59       	subi	r30, 0x97	; 151
     d4e:	fe 4f       	sbci	r31, 0xFE	; 254
     d50:	80 82       	st	Z, r8
     d52:	91 82       	std	Z+1, r9	; 0x01
     d54:	a2 82       	std	Z+2, r10	; 0x02
     d56:	b3 82       	std	Z+3, r11	; 0x03
     d58:	8f 5f       	subi	r24, 0xFF	; 255
     d5a:	80 93 68 01 	sts	0x0168, r24
     d5e:	d6 e0       	ldi	r29, 0x06	; 6
     d60:	19 cf       	rjmp	.-462    	; 0xb94 <cmdline+0x42>
     d62:	32 37       	cpi	r19, 0x72	; 114
     d64:	09 f4       	brne	.+2      	; 0xd68 <cmdline+0x216>
     d66:	f8 c0       	rjmp	.+496    	; 0xf58 <cmdline+0x406>
     d68:	0c f0       	brlt	.+2      	; 0xd6c <cmdline+0x21a>
     d6a:	b1 c0       	rjmp	.+354    	; 0xece <cmdline+0x37c>
     d6c:	38 36       	cpi	r19, 0x68	; 104
     d6e:	09 f4       	brne	.+2      	; 0xd72 <cmdline+0x220>
     d70:	03 c1       	rjmp	.+518    	; 0xf78 <cmdline+0x426>
     d72:	0c f0       	brlt	.+2      	; 0xd76 <cmdline+0x224>
     d74:	88 cf       	rjmp	.-240    	; 0xc86 <cmdline+0x134>
     d76:	3a 30       	cpi	r19, 0x0A	; 10
     d78:	09 f4       	brne	.+2      	; 0xd7c <cmdline+0x22a>
     d7a:	02 cf       	rjmp	.-508    	; 0xb80 <cmdline+0x2e>
     d7c:	30 32       	cpi	r19, 0x20	; 32
     d7e:	09 f0       	breq	.+2      	; 0xd82 <cmdline+0x230>
     d80:	82 cf       	rjmp	.-252    	; 0xc86 <cmdline+0x134>
     d82:	d1 e0       	ldi	r29, 0x01	; 1
     d84:	07 cf       	rjmp	.-498    	; 0xb94 <cmdline+0x42>
     d86:	3a 30       	cpi	r19, 0x0A	; 10
     d88:	09 f4       	brne	.+2      	; 0xd8c <cmdline+0x23a>
     d8a:	fe c0       	rjmp	.+508    	; 0xf88 <cmdline+0x436>
     d8c:	30 32       	cpi	r19, 0x20	; 32
     d8e:	09 f0       	breq	.+2      	; 0xd92 <cmdline+0x240>
     d90:	7a cf       	rjmp	.-268    	; 0xc86 <cmdline+0x134>
     d92:	20 92 67 01 	sts	0x0167, r2
     d96:	d6 e0       	ldi	r29, 0x06	; 6
     d98:	fd ce       	rjmp	.-518    	; 0xb94 <cmdline+0x42>
     d9a:	32 37       	cpi	r19, 0x72	; 114
     d9c:	09 f0       	breq	.+2      	; 0xda0 <cmdline+0x24e>
     d9e:	73 cf       	rjmp	.-282    	; 0xc86 <cmdline+0x134>
     da0:	d4 e1       	ldi	r29, 0x14	; 20
     da2:	f8 ce       	rjmp	.-528    	; 0xb94 <cmdline+0x42>
     da4:	3a 30       	cpi	r19, 0x0A	; 10
     da6:	09 f4       	brne	.+2      	; 0xdaa <cmdline+0x258>
     da8:	02 c1       	rjmp	.+516    	; 0xfae <cmdline+0x45c>
     daa:	30 32       	cpi	r19, 0x20	; 32
     dac:	09 f0       	breq	.+2      	; 0xdb0 <cmdline+0x25e>
     dae:	6b cf       	rjmp	.-298    	; 0xc86 <cmdline+0x134>
     db0:	30 92 67 01 	sts	0x0167, r3
     db4:	d6 e0       	ldi	r29, 0x06	; 6
     db6:	ee ce       	rjmp	.-548    	; 0xb94 <cmdline+0x42>
     db8:	30 37       	cpi	r19, 0x70	; 112
     dba:	09 f0       	breq	.+2      	; 0xdbe <cmdline+0x26c>
     dbc:	64 cf       	rjmp	.-312    	; 0xc86 <cmdline+0x134>
     dbe:	d5 e0       	ldi	r29, 0x05	; 5
     dc0:	e9 ce       	rjmp	.-558    	; 0xb94 <cmdline+0x42>
     dc2:	3c 36       	cpi	r19, 0x6C	; 108
     dc4:	09 f0       	breq	.+2      	; 0xdc8 <cmdline+0x276>
     dc6:	5f cf       	rjmp	.-322    	; 0xc86 <cmdline+0x134>
     dc8:	d4 e0       	ldi	r29, 0x04	; 4
     dca:	e4 ce       	rjmp	.-568    	; 0xb94 <cmdline+0x42>
     dcc:	3a 30       	cpi	r19, 0x0A	; 10
     dce:	09 f4       	brne	.+2      	; 0xdd2 <cmdline+0x280>
     dd0:	c9 c0       	rjmp	.+402    	; 0xf64 <cmdline+0x412>
     dd2:	30 32       	cpi	r19, 0x20	; 32
     dd4:	09 f0       	breq	.+2      	; 0xdd8 <cmdline+0x286>
     dd6:	57 cf       	rjmp	.-338    	; 0xc86 <cmdline+0x134>
     dd8:	c0 93 67 01 	sts	0x0167, r28
     ddc:	d6 e0       	ldi	r29, 0x06	; 6
     dde:	da ce       	rjmp	.-588    	; 0xb94 <cmdline+0x42>
     de0:	30 33       	cpi	r19, 0x30	; 48
     de2:	09 f4       	brne	.+2      	; 0xde6 <cmdline+0x294>
     de4:	ed c0       	rjmp	.+474    	; 0xfc0 <cmdline+0x46e>
     de6:	0c f4       	brge	.+2      	; 0xdea <cmdline+0x298>
     de8:	b1 c0       	rjmp	.+354    	; 0xf4c <cmdline+0x3fa>
     dea:	31 53       	subi	r19, 0x31	; 49
     dec:	39 30       	cpi	r19, 0x09	; 9
     dee:	08 f0       	brcs	.+2      	; 0xdf2 <cmdline+0x2a0>
     df0:	4a cf       	rjmp	.-364    	; 0xc86 <cmdline+0x134>
     df2:	82 2e       	mov	r8, r18
     df4:	99 24       	eor	r9, r9
     df6:	87 fc       	sbrc	r8, 7
     df8:	90 94       	com	r9
     dfa:	80 e3       	ldi	r24, 0x30	; 48
     dfc:	88 1a       	sub	r8, r24
     dfe:	91 08       	sbc	r9, r1
     e00:	aa 24       	eor	r10, r10
     e02:	97 fc       	sbrc	r9, 7
     e04:	a0 94       	com	r10
     e06:	ba 2c       	mov	r11, r10
     e08:	dc e0       	ldi	r29, 0x0C	; 12
     e0a:	c4 ce       	rjmp	.-632    	; 0xb94 <cmdline+0x42>
     e0c:	3a 30       	cpi	r19, 0x0A	; 10
     e0e:	09 f4       	brne	.+2      	; 0xe12 <cmdline+0x2c0>
     e10:	c4 c0       	rjmp	.+392    	; 0xf9a <cmdline+0x448>
     e12:	30 32       	cpi	r19, 0x20	; 32
     e14:	09 f0       	breq	.+2      	; 0xe18 <cmdline+0x2c6>
     e16:	37 cf       	rjmp	.-402    	; 0xc86 <cmdline+0x134>
     e18:	81 e0       	ldi	r24, 0x01	; 1
     e1a:	80 93 67 01 	sts	0x0167, r24
     e1e:	d6 e0       	ldi	r29, 0x06	; 6
     e20:	b9 ce       	rjmp	.-654    	; 0xb94 <cmdline+0x42>
     e22:	35 36       	cpi	r19, 0x65	; 101
     e24:	09 f0       	breq	.+2      	; 0xe28 <cmdline+0x2d6>
     e26:	2f cf       	rjmp	.-418    	; 0xc86 <cmdline+0x134>
     e28:	d3 e0       	ldi	r29, 0x03	; 3
     e2a:	b4 ce       	rjmp	.-664    	; 0xb94 <cmdline+0x42>
     e2c:	32 37       	cpi	r19, 0x72	; 114
     e2e:	09 f4       	brne	.+2      	; 0xe32 <cmdline+0x2e0>
     e30:	93 c0       	rjmp	.+294    	; 0xf58 <cmdline+0x406>
     e32:	0c f0       	brlt	.+2      	; 0xe36 <cmdline+0x2e4>
     e34:	4c c0       	rjmp	.+152    	; 0xece <cmdline+0x37c>
     e36:	38 36       	cpi	r19, 0x68	; 104
     e38:	09 f4       	brne	.+2      	; 0xe3c <cmdline+0x2ea>
     e3a:	9e c0       	rjmp	.+316    	; 0xf78 <cmdline+0x426>
     e3c:	0c f0       	brlt	.+2      	; 0xe40 <cmdline+0x2ee>
     e3e:	23 cf       	rjmp	.-442    	; 0xc86 <cmdline+0x134>
     e40:	3a 30       	cpi	r19, 0x0A	; 10
     e42:	09 f4       	brne	.+2      	; 0xe46 <cmdline+0x2f4>
     e44:	9d ce       	rjmp	.-710    	; 0xb80 <cmdline+0x2e>
     e46:	30 32       	cpi	r19, 0x20	; 32
     e48:	09 f4       	brne	.+2      	; 0xe4c <cmdline+0x2fa>
     e4a:	a4 ce       	rjmp	.-696    	; 0xb94 <cmdline+0x42>
     e4c:	80 91 67 01 	lds	r24, 0x0167
     e50:	88 23       	and	r24, r24
     e52:	09 f4       	brne	.+2      	; 0xe56 <cmdline+0x304>
     e54:	1c cf       	rjmp	.-456    	; 0xc8e <cmdline+0x13c>
     e56:	80 91 68 01 	lds	r24, 0x0168
     e5a:	90 e0       	ldi	r25, 0x00	; 0
     e5c:	01 96       	adiw	r24, 0x01	; 1
     e5e:	9f 93       	push	r25
     e60:	8f 93       	push	r24
     e62:	86 e1       	ldi	r24, 0x16	; 22
     e64:	92 e0       	ldi	r25, 0x02	; 2
     e66:	9f 93       	push	r25
     e68:	8f 93       	push	r24
     e6a:	0e 94 0e 0a 	call	0x141c	; 0x141c <printf_P>
     e6e:	0f 90       	pop	r0
     e70:	0f 90       	pop	r0
     e72:	0f 90       	pop	r0
     e74:	0f 90       	pop	r0
     e76:	13 cf       	rjmp	.-474    	; 0xc9e <cmdline+0x14c>
     e78:	36 36       	cpi	r19, 0x66	; 102
     e7a:	09 f4       	brne	.+2      	; 0xe7e <cmdline+0x32c>
     e7c:	83 c0       	rjmp	.+262    	; 0xf84 <cmdline+0x432>
     e7e:	32 37       	cpi	r19, 0x72	; 114
     e80:	09 f0       	breq	.+2      	; 0xe84 <cmdline+0x332>
     e82:	01 cf       	rjmp	.-510    	; 0xc86 <cmdline+0x134>
     e84:	d2 e1       	ldi	r29, 0x12	; 18
     e86:	86 ce       	rjmp	.-756    	; 0xb94 <cmdline+0x42>
     e88:	80 91 68 01 	lds	r24, 0x0168
     e8c:	84 30       	cpi	r24, 0x04	; 4
     e8e:	78 f4       	brcc	.+30     	; 0xeae <cmdline+0x35c>
     e90:	e8 2f       	mov	r30, r24
     e92:	f0 e0       	ldi	r31, 0x00	; 0
     e94:	ee 0f       	add	r30, r30
     e96:	ff 1f       	adc	r31, r31
     e98:	ee 0f       	add	r30, r30
     e9a:	ff 1f       	adc	r31, r31
     e9c:	e7 59       	subi	r30, 0x97	; 151
     e9e:	fe 4f       	sbci	r31, 0xFE	; 254
     ea0:	80 82       	st	Z, r8
     ea2:	91 82       	std	Z+1, r9	; 0x01
     ea4:	a2 82       	std	Z+2, r10	; 0x02
     ea6:	b3 82       	std	Z+3, r11	; 0x03
     ea8:	8f 5f       	subi	r24, 0xFF	; 255
     eaa:	80 93 68 01 	sts	0x0168, r24
     eae:	e0 91 67 01 	lds	r30, 0x0167
     eb2:	f0 e0       	ldi	r31, 0x00	; 0
     eb4:	ee 0f       	add	r30, r30
     eb6:	ff 1f       	adc	r31, r31
     eb8:	e6 50       	subi	r30, 0x06	; 6
     eba:	ff 4f       	sbci	r31, 0xFF	; 255
     ebc:	25 91       	lpm	r18, Z+
     ebe:	34 91       	lpm	r19, Z
     ec0:	69 e6       	ldi	r22, 0x69	; 105
     ec2:	71 e0       	ldi	r23, 0x01	; 1
     ec4:	f9 01       	movw	r30, r18
     ec6:	09 95       	icall
     ec8:	5b ce       	rjmp	.-842    	; 0xb80 <cmdline+0x2e>
     eca:	d6 e0       	ldi	r29, 0x06	; 6
     ecc:	63 ce       	rjmp	.-826    	; 0xb94 <cmdline+0x42>
     ece:	27 37       	cpi	r18, 0x77	; 119
     ed0:	09 f0       	breq	.+2      	; 0xed4 <cmdline+0x382>
     ed2:	d9 ce       	rjmp	.-590    	; 0xc86 <cmdline+0x134>
     ed4:	10 92 67 01 	sts	0x0167, r1
     ed8:	10 92 68 01 	sts	0x0168, r1
     edc:	d3 e1       	ldi	r29, 0x13	; 19
     ede:	5a ce       	rjmp	.-844    	; 0xb94 <cmdline+0x42>
     ee0:	20 33       	cpi	r18, 0x30	; 48
     ee2:	0c f4       	brge	.+2      	; 0xee6 <cmdline+0x394>
     ee4:	d0 ce       	rjmp	.-608    	; 0xc86 <cmdline+0x134>
     ee6:	d5 01       	movw	r26, r10
     ee8:	c4 01       	movw	r24, r8
     eea:	88 0f       	add	r24, r24
     eec:	99 1f       	adc	r25, r25
     eee:	aa 1f       	adc	r26, r26
     ef0:	bb 1f       	adc	r27, r27
     ef2:	88 0f       	add	r24, r24
     ef4:	99 1f       	adc	r25, r25
     ef6:	aa 1f       	adc	r26, r26
     ef8:	bb 1f       	adc	r27, r27
     efa:	88 0f       	add	r24, r24
     efc:	99 1f       	adc	r25, r25
     efe:	aa 1f       	adc	r26, r26
     f00:	bb 1f       	adc	r27, r27
     f02:	88 0f       	add	r24, r24
     f04:	99 1f       	adc	r25, r25
     f06:	aa 1f       	adc	r26, r26
     f08:	bb 1f       	adc	r27, r27
     f0a:	82 2e       	mov	r8, r18
     f0c:	99 24       	eor	r9, r9
     f0e:	87 fc       	sbrc	r8, 7
     f10:	90 94       	com	r9
     f12:	e0 e3       	ldi	r30, 0x30	; 48
     f14:	8e 1a       	sub	r8, r30
     f16:	91 08       	sbc	r9, r1
     f18:	f4 ce       	rjmp	.-536    	; 0xd02 <cmdline+0x1b0>
     f1a:	de e0       	ldi	r29, 0x0E	; 14
     f1c:	3b ce       	rjmp	.-906    	; 0xb94 <cmdline+0x42>
     f1e:	d5 01       	movw	r26, r10
     f20:	c4 01       	movw	r24, r8
     f22:	88 0f       	add	r24, r24
     f24:	99 1f       	adc	r25, r25
     f26:	aa 1f       	adc	r26, r26
     f28:	bb 1f       	adc	r27, r27
     f2a:	82 2e       	mov	r8, r18
     f2c:	99 24       	eor	r9, r9
     f2e:	87 fc       	sbrc	r8, 7
     f30:	90 94       	com	r9
     f32:	20 e3       	ldi	r18, 0x30	; 48
     f34:	82 1a       	sub	r8, r18
     f36:	91 08       	sbc	r9, r1
     f38:	aa 24       	eor	r10, r10
     f3a:	97 fc       	sbrc	r9, 7
     f3c:	a0 94       	com	r10
     f3e:	ba 2c       	mov	r11, r10
     f40:	88 0e       	add	r8, r24
     f42:	99 1e       	adc	r9, r25
     f44:	aa 1e       	adc	r10, r26
     f46:	bb 1e       	adc	r11, r27
     f48:	da e0       	ldi	r29, 0x0A	; 10
     f4a:	24 ce       	rjmp	.-952    	; 0xb94 <cmdline+0x42>
     f4c:	3a 30       	cpi	r19, 0x0A	; 10
     f4e:	e9 f1       	breq	.+122    	; 0xfca <cmdline+0x478>
     f50:	30 32       	cpi	r19, 0x20	; 32
     f52:	09 f0       	breq	.+2      	; 0xf56 <cmdline+0x404>
     f54:	4a cf       	rjmp	.-364    	; 0xdea <cmdline+0x298>
     f56:	1e ce       	rjmp	.-964    	; 0xb94 <cmdline+0x42>
     f58:	10 92 67 01 	sts	0x0167, r1
     f5c:	10 92 68 01 	sts	0x0168, r1
     f60:	d0 e1       	ldi	r29, 0x10	; 16
     f62:	18 ce       	rjmp	.-976    	; 0xb94 <cmdline+0x42>
     f64:	83 e0       	ldi	r24, 0x03	; 3
     f66:	80 93 67 01 	sts	0x0167, r24
     f6a:	69 e6       	ldi	r22, 0x69	; 105
     f6c:	71 e0       	ldi	r23, 0x01	; 1
     f6e:	80 91 68 01 	lds	r24, 0x0168
     f72:	f8 01       	movw	r30, r16
     f74:	09 95       	icall
     f76:	04 ce       	rjmp	.-1016   	; 0xb80 <cmdline+0x2e>
     f78:	10 92 67 01 	sts	0x0167, r1
     f7c:	10 92 68 01 	sts	0x0168, r1
     f80:	d2 e0       	ldi	r29, 0x02	; 2
     f82:	08 ce       	rjmp	.-1008   	; 0xb94 <cmdline+0x42>
     f84:	d1 e1       	ldi	r29, 0x11	; 17
     f86:	06 ce       	rjmp	.-1012   	; 0xb94 <cmdline+0x42>
     f88:	20 92 67 01 	sts	0x0167, r2
     f8c:	69 e6       	ldi	r22, 0x69	; 105
     f8e:	71 e0       	ldi	r23, 0x01	; 1
     f90:	80 91 68 01 	lds	r24, 0x0168
     f94:	f6 01       	movw	r30, r12
     f96:	09 95       	icall
     f98:	f3 cd       	rjmp	.-1050   	; 0xb80 <cmdline+0x2e>
     f9a:	81 e0       	ldi	r24, 0x01	; 1
     f9c:	80 93 67 01 	sts	0x0167, r24
     fa0:	69 e6       	ldi	r22, 0x69	; 105
     fa2:	71 e0       	ldi	r23, 0x01	; 1
     fa4:	80 91 68 01 	lds	r24, 0x0168
     fa8:	f2 01       	movw	r30, r4
     faa:	09 95       	icall
     fac:	e9 cd       	rjmp	.-1070   	; 0xb80 <cmdline+0x2e>
     fae:	30 92 67 01 	sts	0x0167, r3
     fb2:	69 e6       	ldi	r22, 0x69	; 105
     fb4:	71 e0       	ldi	r23, 0x01	; 1
     fb6:	80 91 68 01 	lds	r24, 0x0168
     fba:	f7 01       	movw	r30, r14
     fbc:	09 95       	icall
     fbe:	e0 cd       	rjmp	.-1088   	; 0xb80 <cmdline+0x2e>
     fc0:	d7 e0       	ldi	r29, 0x07	; 7
     fc2:	81 2c       	mov	r8, r1
     fc4:	91 2c       	mov	r9, r1
     fc6:	54 01       	movw	r10, r8
     fc8:	e5 cd       	rjmp	.-1078   	; 0xb94 <cmdline+0x42>
     fca:	80 91 67 01 	lds	r24, 0x0167
     fce:	90 e0       	ldi	r25, 0x00	; 0
     fd0:	88 0f       	add	r24, r24
     fd2:	99 1f       	adc	r25, r25
     fd4:	86 50       	subi	r24, 0x06	; 6
     fd6:	9f 4f       	sbci	r25, 0xFF	; 255
     fd8:	fc 01       	movw	r30, r24
     fda:	25 91       	lpm	r18, Z+
     fdc:	34 91       	lpm	r19, Z
     fde:	69 e6       	ldi	r22, 0x69	; 105
     fe0:	71 e0       	ldi	r23, 0x01	; 1
     fe2:	80 91 68 01 	lds	r24, 0x0168
     fe6:	f9 01       	movw	r30, r18
     fe8:	09 95       	icall
     fea:	ca cd       	rjmp	.-1132   	; 0xb80 <cmdline+0x2e>
     fec:	dd e0       	ldi	r29, 0x0D	; 13
     fee:	d2 cd       	rjmp	.-1116   	; 0xb94 <cmdline+0x42>
     ff0:	d9 e0       	ldi	r29, 0x09	; 9
     ff2:	d0 cd       	rjmp	.-1120   	; 0xb94 <cmdline+0x42>
     ff4:	db e0       	ldi	r29, 0x0B	; 11
     ff6:	ce cd       	rjmp	.-1124   	; 0xb94 <cmdline+0x42>

00000ff8 <rb_echo>:
     ff8:	cf 93       	push	r28
     ffa:	df 93       	push	r29
     ffc:	fc 01       	movw	r30, r24
     ffe:	82 85       	ldd	r24, Z+10	; 0x0a
    1000:	81 fd       	sbrc	r24, 1
    1002:	21 c0       	rjmp	.+66     	; 0x1046 <rb_echo+0x4e>
    1004:	8b 7f       	andi	r24, 0xFB	; 251
    1006:	82 87       	std	Z+10, r24	; 0x0a
    1008:	a6 81       	ldd	r26, Z+6	; 0x06
    100a:	b7 81       	ldd	r27, Z+7	; 0x07
    100c:	8d 91       	ld	r24, X+
    100e:	eb 01       	movw	r28, r22
    1010:	88 83       	st	Y, r24
    1012:	82 81       	ldd	r24, Z+2	; 0x02
    1014:	93 81       	ldd	r25, Z+3	; 0x03
    1016:	8a 17       	cp	r24, r26
    1018:	9b 07       	cpc	r25, r27
    101a:	91 f0       	breq	.+36     	; 0x1040 <rb_echo+0x48>
    101c:	b7 83       	std	Z+7, r27	; 0x07
    101e:	a6 83       	std	Z+6, r26	; 0x06
    1020:	84 81       	ldd	r24, Z+4	; 0x04
    1022:	95 81       	ldd	r25, Z+5	; 0x05
    1024:	8a 17       	cp	r24, r26
    1026:	9b 07       	cpc	r25, r27
    1028:	21 f0       	breq	.+8      	; 0x1032 <rb_echo+0x3a>
    102a:	81 e0       	ldi	r24, 0x01	; 1
    102c:	df 91       	pop	r29
    102e:	cf 91       	pop	r28
    1030:	08 95       	ret
    1032:	82 85       	ldd	r24, Z+10	; 0x0a
    1034:	82 60       	ori	r24, 0x02	; 2
    1036:	82 87       	std	Z+10, r24	; 0x0a
    1038:	80 e0       	ldi	r24, 0x00	; 0
    103a:	df 91       	pop	r29
    103c:	cf 91       	pop	r28
    103e:	08 95       	ret
    1040:	a0 81       	ld	r26, Z
    1042:	b1 81       	ldd	r27, Z+1	; 0x01
    1044:	eb cf       	rjmp	.-42     	; 0x101c <rb_echo+0x24>
    1046:	8f ef       	ldi	r24, 0xFF	; 255
    1048:	f1 cf       	rjmp	.-30     	; 0x102c <rb_echo+0x34>

0000104a <rb_erase>:
    104a:	fc 01       	movw	r30, r24
    104c:	82 85       	ldd	r24, Z+10	; 0x0a
    104e:	48 2f       	mov	r20, r24
    1050:	42 70       	andi	r20, 0x02	; 2
    1052:	98 2f       	mov	r25, r24
    1054:	96 70       	andi	r25, 0x06	; 6
    1056:	96 30       	cpi	r25, 0x06	; 6
    1058:	f9 f0       	breq	.+62     	; 0x1098 <rb_erase+0x4e>
    105a:	58 2f       	mov	r21, r24
    105c:	5e 7f       	andi	r21, 0xFE	; 254
    105e:	52 87       	std	Z+10, r21	; 0x0a
    1060:	84 81       	ldd	r24, Z+4	; 0x04
    1062:	95 81       	ldd	r25, Z+5	; 0x05
    1064:	20 81       	ld	r18, Z
    1066:	31 81       	ldd	r19, Z+1	; 0x01
    1068:	28 17       	cp	r18, r24
    106a:	39 07       	cpc	r19, r25
    106c:	b9 f0       	breq	.+46     	; 0x109c <rb_erase+0x52>
    106e:	01 97       	sbiw	r24, 0x01	; 1
    1070:	95 83       	std	Z+5, r25	; 0x05
    1072:	84 83       	std	Z+4, r24	; 0x04
    1074:	44 23       	and	r20, r20
    1076:	49 f0       	breq	.+18     	; 0x108a <rb_erase+0x40>
    1078:	97 83       	std	Z+7, r25	; 0x07
    107a:	86 83       	std	Z+6, r24	; 0x06
    107c:	20 85       	ldd	r18, Z+8	; 0x08
    107e:	31 85       	ldd	r19, Z+9	; 0x09
    1080:	28 17       	cp	r18, r24
    1082:	39 07       	cpc	r19, r25
    1084:	71 f0       	breq	.+28     	; 0x10a2 <rb_erase+0x58>
    1086:	81 e0       	ldi	r24, 0x01	; 1
    1088:	08 95       	ret
    108a:	26 81       	ldd	r18, Z+6	; 0x06
    108c:	37 81       	ldd	r19, Z+7	; 0x07
    108e:	28 17       	cp	r18, r24
    1090:	39 07       	cpc	r19, r25
    1092:	11 f4       	brne	.+4      	; 0x1098 <rb_erase+0x4e>
    1094:	52 60       	ori	r21, 0x02	; 2
    1096:	52 87       	std	Z+10, r21	; 0x0a
    1098:	80 e0       	ldi	r24, 0x00	; 0
    109a:	08 95       	ret
    109c:	82 81       	ldd	r24, Z+2	; 0x02
    109e:	93 81       	ldd	r25, Z+3	; 0x03
    10a0:	e6 cf       	rjmp	.-52     	; 0x106e <rb_erase+0x24>
    10a2:	54 60       	ori	r21, 0x04	; 4
    10a4:	52 87       	std	Z+10, r21	; 0x0a
    10a6:	81 e0       	ldi	r24, 0x01	; 1
    10a8:	08 95       	ret

000010aa <rb_get>:
    10aa:	cf 93       	push	r28
    10ac:	df 93       	push	r29
    10ae:	fc 01       	movw	r30, r24
    10b0:	82 85       	ldd	r24, Z+10	; 0x0a
    10b2:	82 fd       	sbrc	r24, 2
    10b4:	21 c0       	rjmp	.+66     	; 0x10f8 <rb_get+0x4e>
    10b6:	8e 7f       	andi	r24, 0xFE	; 254
    10b8:	82 87       	std	Z+10, r24	; 0x0a
    10ba:	a0 85       	ldd	r26, Z+8	; 0x08
    10bc:	b1 85       	ldd	r27, Z+9	; 0x09
    10be:	8d 91       	ld	r24, X+
    10c0:	eb 01       	movw	r28, r22
    10c2:	88 83       	st	Y, r24
    10c4:	82 81       	ldd	r24, Z+2	; 0x02
    10c6:	93 81       	ldd	r25, Z+3	; 0x03
    10c8:	8a 17       	cp	r24, r26
    10ca:	9b 07       	cpc	r25, r27
    10cc:	91 f0       	breq	.+36     	; 0x10f2 <rb_get+0x48>
    10ce:	b1 87       	std	Z+9, r27	; 0x09
    10d0:	a0 87       	std	Z+8, r26	; 0x08
    10d2:	86 81       	ldd	r24, Z+6	; 0x06
    10d4:	97 81       	ldd	r25, Z+7	; 0x07
    10d6:	8a 17       	cp	r24, r26
    10d8:	9b 07       	cpc	r25, r27
    10da:	21 f0       	breq	.+8      	; 0x10e4 <rb_get+0x3a>
    10dc:	81 e0       	ldi	r24, 0x01	; 1
    10de:	df 91       	pop	r29
    10e0:	cf 91       	pop	r28
    10e2:	08 95       	ret
    10e4:	82 85       	ldd	r24, Z+10	; 0x0a
    10e6:	84 60       	ori	r24, 0x04	; 4
    10e8:	82 87       	std	Z+10, r24	; 0x0a
    10ea:	80 e0       	ldi	r24, 0x00	; 0
    10ec:	df 91       	pop	r29
    10ee:	cf 91       	pop	r28
    10f0:	08 95       	ret
    10f2:	a0 81       	ld	r26, Z
    10f4:	b1 81       	ldd	r27, Z+1	; 0x01
    10f6:	eb cf       	rjmp	.-42     	; 0x10ce <rb_get+0x24>
    10f8:	8f ef       	ldi	r24, 0xFF	; 255
    10fa:	f1 cf       	rjmp	.-30     	; 0x10de <rb_get+0x34>

000010fc <rb_init>:
    10fc:	fc 01       	movw	r30, r24
    10fe:	71 83       	std	Z+1, r23	; 0x01
    1100:	60 83       	st	Z, r22
    1102:	46 0f       	add	r20, r22
    1104:	57 1f       	adc	r21, r23
    1106:	53 83       	std	Z+3, r21	; 0x03
    1108:	42 83       	std	Z+2, r20	; 0x02
    110a:	82 85       	ldd	r24, Z+10	; 0x0a
    110c:	88 7f       	andi	r24, 0xF8	; 248
    110e:	86 60       	ori	r24, 0x06	; 6
    1110:	82 87       	std	Z+10, r24	; 0x0a
    1112:	75 83       	std	Z+5, r23	; 0x05
    1114:	64 83       	std	Z+4, r22	; 0x04
    1116:	77 83       	std	Z+7, r23	; 0x07
    1118:	66 83       	std	Z+6, r22	; 0x06
    111a:	71 87       	std	Z+9, r23	; 0x09
    111c:	60 87       	std	Z+8, r22	; 0x08
    111e:	08 95       	ret

00001120 <rb_kill>:
    1120:	1f 93       	push	r17
    1122:	cf 93       	push	r28
    1124:	df 93       	push	r29
    1126:	fc 01       	movw	r30, r24
    1128:	24 81       	ldd	r18, Z+4	; 0x04
    112a:	35 81       	ldd	r19, Z+5	; 0x05
    112c:	46 81       	ldd	r20, Z+6	; 0x06
    112e:	57 81       	ldd	r21, Z+7	; 0x07
    1130:	a2 81       	ldd	r26, Z+2	; 0x02
    1132:	b3 81       	ldd	r27, Z+3	; 0x03
    1134:	80 81       	ld	r24, Z
    1136:	91 81       	ldd	r25, Z+1	; 0x01
    1138:	ed 01       	movw	r28, r26
    113a:	c8 1b       	sub	r28, r24
    113c:	d9 0b       	sbc	r29, r25
    113e:	80 85       	ldd	r24, Z+8	; 0x08
    1140:	91 85       	ldd	r25, Z+9	; 0x09
    1142:	68 17       	cp	r22, r24
    1144:	79 07       	cpc	r23, r25
    1146:	10 f4       	brcc	.+4      	; 0x114c <rb_kill+0x2c>
    1148:	6c 0f       	add	r22, r28
    114a:	71 1d       	adc	r23, r1
    114c:	12 85       	ldd	r17, Z+10	; 0x0a
    114e:	10 fd       	sbrc	r17, 0
    1150:	20 c0       	rjmp	.+64     	; 0x1192 <rb_kill+0x72>
    1152:	80 85       	ldd	r24, Z+8	; 0x08
    1154:	91 85       	ldd	r25, Z+9	; 0x09
    1156:	28 17       	cp	r18, r24
    1158:	39 07       	cpc	r19, r25
    115a:	d8 f0       	brcs	.+54     	; 0x1192 <rb_kill+0x72>
    115c:	12 fd       	sbrc	r17, 2
    115e:	05 c0       	rjmp	.+10     	; 0x116a <rb_kill+0x4a>
    1160:	80 85       	ldd	r24, Z+8	; 0x08
    1162:	91 85       	ldd	r25, Z+9	; 0x09
    1164:	84 17       	cp	r24, r20
    1166:	95 07       	cpc	r25, r21
    1168:	70 f5       	brcc	.+92     	; 0x11c6 <rb_kill+0xa6>
    116a:	62 17       	cp	r22, r18
    116c:	73 07       	cpc	r23, r19
    116e:	c0 f4       	brcc	.+48     	; 0x11a0 <rb_kill+0x80>
    1170:	1e 7f       	andi	r17, 0xFE	; 254
    1172:	12 87       	std	Z+10, r17	; 0x0a
    1174:	64 17       	cp	r22, r20
    1176:	75 07       	cpc	r23, r21
    1178:	78 f4       	brcc	.+30     	; 0x1198 <rb_kill+0x78>
    117a:	84 2f       	mov	r24, r20
    117c:	86 1b       	sub	r24, r22
    117e:	40 85       	ldd	r20, Z+8	; 0x08
    1180:	51 85       	ldd	r21, Z+9	; 0x09
    1182:	46 17       	cp	r20, r22
    1184:	57 07       	cpc	r21, r23
    1186:	11 f1       	breq	.+68     	; 0x11cc <rb_kill+0xac>
    1188:	ab 01       	movw	r20, r22
    118a:	12 60       	ori	r17, 0x02	; 2
    118c:	12 87       	std	Z+10, r17	; 0x0a
    118e:	9b 01       	movw	r18, r22
    1190:	08 c0       	rjmp	.+16     	; 0x11a2 <rb_kill+0x82>
    1192:	2c 0f       	add	r18, r28
    1194:	31 1d       	adc	r19, r1
    1196:	e2 cf       	rjmp	.-60     	; 0x115c <rb_kill+0x3c>
    1198:	64 17       	cp	r22, r20
    119a:	75 07       	cpc	r23, r21
    119c:	c9 f0       	breq	.+50     	; 0x11d0 <rb_kill+0xb0>
    119e:	9b 01       	movw	r18, r22
    11a0:	80 e0       	ldi	r24, 0x00	; 0
    11a2:	2a 17       	cp	r18, r26
    11a4:	3b 07       	cpc	r19, r27
    11a6:	10 f0       	brcs	.+4      	; 0x11ac <rb_kill+0x8c>
    11a8:	2c 1b       	sub	r18, r28
    11aa:	31 09       	sbc	r19, r1
    11ac:	4a 17       	cp	r20, r26
    11ae:	5b 07       	cpc	r21, r27
    11b0:	10 f0       	brcs	.+4      	; 0x11b6 <rb_kill+0x96>
    11b2:	4c 1b       	sub	r20, r28
    11b4:	51 09       	sbc	r21, r1
    11b6:	35 83       	std	Z+5, r19	; 0x05
    11b8:	24 83       	std	Z+4, r18	; 0x04
    11ba:	57 83       	std	Z+7, r21	; 0x07
    11bc:	46 83       	std	Z+6, r20	; 0x06
    11be:	df 91       	pop	r29
    11c0:	cf 91       	pop	r28
    11c2:	1f 91       	pop	r17
    11c4:	08 95       	ret
    11c6:	4c 0f       	add	r20, r28
    11c8:	51 1d       	adc	r21, r1
    11ca:	cf cf       	rjmp	.-98     	; 0x116a <rb_kill+0x4a>
    11cc:	14 60       	ori	r17, 0x04	; 4
    11ce:	dd cf       	rjmp	.-70     	; 0x118a <rb_kill+0x6a>
    11d0:	80 e0       	ldi	r24, 0x00	; 0
    11d2:	db cf       	rjmp	.-74     	; 0x118a <rb_kill+0x6a>

000011d4 <rb_put>:
    11d4:	cf 93       	push	r28
    11d6:	df 93       	push	r29
    11d8:	fc 01       	movw	r30, r24
    11da:	82 85       	ldd	r24, Z+10	; 0x0a
    11dc:	80 fd       	sbrc	r24, 0
    11de:	24 c0       	rjmp	.+72     	; 0x1228 <rb_put+0x54>
    11e0:	8b 7f       	andi	r24, 0xFB	; 251
    11e2:	82 60       	ori	r24, 0x02	; 2
    11e4:	82 87       	std	Z+10, r24	; 0x0a
    11e6:	a4 81       	ldd	r26, Z+4	; 0x04
    11e8:	b5 81       	ldd	r27, Z+5	; 0x05
    11ea:	eb 01       	movw	r28, r22
    11ec:	88 81       	ld	r24, Y
    11ee:	8d 93       	st	X+, r24
    11f0:	82 81       	ldd	r24, Z+2	; 0x02
    11f2:	93 81       	ldd	r25, Z+3	; 0x03
    11f4:	8a 17       	cp	r24, r26
    11f6:	9b 07       	cpc	r25, r27
    11f8:	a1 f0       	breq	.+40     	; 0x1222 <rb_put+0x4e>
    11fa:	b5 83       	std	Z+5, r27	; 0x05
    11fc:	a4 83       	std	Z+4, r26	; 0x04
    11fe:	b7 83       	std	Z+7, r27	; 0x07
    1200:	a6 83       	std	Z+6, r26	; 0x06
    1202:	80 85       	ldd	r24, Z+8	; 0x08
    1204:	91 85       	ldd	r25, Z+9	; 0x09
    1206:	8a 17       	cp	r24, r26
    1208:	9b 07       	cpc	r25, r27
    120a:	21 f0       	breq	.+8      	; 0x1214 <rb_put+0x40>
    120c:	81 e0       	ldi	r24, 0x01	; 1
    120e:	df 91       	pop	r29
    1210:	cf 91       	pop	r28
    1212:	08 95       	ret
    1214:	82 85       	ldd	r24, Z+10	; 0x0a
    1216:	81 60       	ori	r24, 0x01	; 1
    1218:	82 87       	std	Z+10, r24	; 0x0a
    121a:	80 e0       	ldi	r24, 0x00	; 0
    121c:	df 91       	pop	r29
    121e:	cf 91       	pop	r28
    1220:	08 95       	ret
    1222:	a0 81       	ld	r26, Z
    1224:	b1 81       	ldd	r27, Z+1	; 0x01
    1226:	e9 cf       	rjmp	.-46     	; 0x11fa <rb_put+0x26>
    1228:	8f ef       	ldi	r24, 0xFF	; 255
    122a:	f1 cf       	rjmp	.-30     	; 0x120e <rb_put+0x3a>

0000122c <rb_put_echo>:
    122c:	cf 93       	push	r28
    122e:	df 93       	push	r29
    1230:	fc 01       	movw	r30, r24
    1232:	82 85       	ldd	r24, Z+10	; 0x0a
    1234:	80 fd       	sbrc	r24, 0
    1236:	21 c0       	rjmp	.+66     	; 0x127a <rb_put_echo+0x4e>
    1238:	8d 7f       	andi	r24, 0xFD	; 253
    123a:	82 87       	std	Z+10, r24	; 0x0a
    123c:	a4 81       	ldd	r26, Z+4	; 0x04
    123e:	b5 81       	ldd	r27, Z+5	; 0x05
    1240:	eb 01       	movw	r28, r22
    1242:	88 81       	ld	r24, Y
    1244:	8d 93       	st	X+, r24
    1246:	82 81       	ldd	r24, Z+2	; 0x02
    1248:	93 81       	ldd	r25, Z+3	; 0x03
    124a:	8a 17       	cp	r24, r26
    124c:	9b 07       	cpc	r25, r27
    124e:	91 f0       	breq	.+36     	; 0x1274 <rb_put_echo+0x48>
    1250:	b5 83       	std	Z+5, r27	; 0x05
    1252:	a4 83       	std	Z+4, r26	; 0x04
    1254:	80 85       	ldd	r24, Z+8	; 0x08
    1256:	91 85       	ldd	r25, Z+9	; 0x09
    1258:	8a 17       	cp	r24, r26
    125a:	9b 07       	cpc	r25, r27
    125c:	21 f0       	breq	.+8      	; 0x1266 <rb_put_echo+0x3a>
    125e:	81 e0       	ldi	r24, 0x01	; 1
    1260:	df 91       	pop	r29
    1262:	cf 91       	pop	r28
    1264:	08 95       	ret
    1266:	82 85       	ldd	r24, Z+10	; 0x0a
    1268:	81 60       	ori	r24, 0x01	; 1
    126a:	82 87       	std	Z+10, r24	; 0x0a
    126c:	80 e0       	ldi	r24, 0x00	; 0
    126e:	df 91       	pop	r29
    1270:	cf 91       	pop	r28
    1272:	08 95       	ret
    1274:	a0 81       	ld	r26, Z
    1276:	b1 81       	ldd	r27, Z+1	; 0x01
    1278:	eb cf       	rjmp	.-42     	; 0x1250 <rb_put_echo+0x24>
    127a:	8f ef       	ldi	r24, 0xFF	; 255
    127c:	f1 cf       	rjmp	.-30     	; 0x1260 <rb_put_echo+0x34>

0000127e <main>:
    127e:	f8 94       	cli
    1280:	78 94       	sei
    1282:	82 e9       	ldi	r24, 0x92	; 146
    1284:	90 e0       	ldi	r25, 0x00	; 0
    1286:	9f 93       	push	r25
    1288:	8f 93       	push	r24
    128a:	0e 94 0e 0a 	call	0x141c	; 0x141c <printf_P>
    128e:	0e 94 a9 05 	call	0xb52	; 0xb52 <cmdline>

00001292 <console_init>:
    1292:	40 e2       	ldi	r20, 0x20	; 32
    1294:	50 e0       	ldi	r21, 0x00	; 0
    1296:	67 e2       	ldi	r22, 0x27	; 39
    1298:	71 e0       	ldi	r23, 0x01	; 1
    129a:	81 e1       	ldi	r24, 0x11	; 17
    129c:	91 e0       	ldi	r25, 0x01	; 1
    129e:	0e 94 7e 08 	call	0x10fc	; 0x10fc <rb_init>
    12a2:	40 e2       	ldi	r20, 0x20	; 32
    12a4:	50 e0       	ldi	r21, 0x00	; 0
    12a6:	67 e4       	ldi	r22, 0x47	; 71
    12a8:	71 e0       	ldi	r23, 0x01	; 1
    12aa:	8c e1       	ldi	r24, 0x1C	; 28
    12ac:	91 e0       	ldi	r25, 0x01	; 1
    12ae:	0e 94 7e 08 	call	0x10fc	; 0x10fc <rb_init>
    12b2:	80 91 20 01 	lds	r24, 0x0120
    12b6:	90 91 21 01 	lds	r25, 0x0121
    12ba:	90 93 0f 01 	sts	0x010F, r25
    12be:	80 93 0e 01 	sts	0x010E, r24
    12c2:	10 92 10 01 	sts	0x0110, r1
    12c6:	eb e1       	ldi	r30, 0x1B	; 27
    12c8:	f1 e0       	ldi	r31, 0x01	; 1
    12ca:	80 81       	ld	r24, Z
    12cc:	87 7c       	andi	r24, 0xC7	; 199
    12ce:	80 83       	st	Z, r24
    12d0:	88 e3       	ldi	r24, 0x38	; 56
    12d2:	90 e4       	ldi	r25, 0x40	; 64
    12d4:	0e 94 0d 03 	call	0x61a	; 0x61a <console_setattr>
    12d8:	80 e0       	ldi	r24, 0x00	; 0
    12da:	91 e0       	ldi	r25, 0x01	; 1
    12dc:	90 93 7a 01 	sts	0x017A, r25
    12e0:	80 93 79 01 	sts	0x0179, r24
    12e4:	90 93 7c 01 	sts	0x017C, r25
    12e8:	80 93 7b 01 	sts	0x017B, r24
    12ec:	90 93 7e 01 	sts	0x017E, r25
    12f0:	80 93 7d 01 	sts	0x017D, r24
    12f4:	83 e0       	ldi	r24, 0x03	; 3
    12f6:	90 e0       	ldi	r25, 0x00	; 0
    12f8:	90 93 c5 00 	sts	0x00C5, r25
    12fc:	80 93 c4 00 	sts	0x00C4, r24
    1300:	10 92 c0 00 	sts	0x00C0, r1
    1304:	e1 ec       	ldi	r30, 0xC1	; 193
    1306:	f0 e0       	ldi	r31, 0x00	; 0
    1308:	10 82       	st	Z, r1
    130a:	8e e0       	ldi	r24, 0x0E	; 14
    130c:	80 93 c2 00 	sts	0x00C2, r24
    1310:	80 81       	ld	r24, Z
    1312:	80 69       	ori	r24, 0x90	; 144
    1314:	80 83       	st	Z, r24
    1316:	08 95       	ret

00001318 <__tablejump2__>:
    1318:	ee 0f       	add	r30, r30
    131a:	ff 1f       	adc	r31, r31

0000131c <__tablejump__>:
    131c:	05 90       	lpm	r0, Z+
    131e:	f4 91       	lpm	r31, Z
    1320:	e0 2d       	mov	r30, r0
    1322:	09 94       	ijmp

00001324 <isgraph>:
    1324:	80 32       	cpi	r24, 0x20	; 32
    1326:	09 f0       	breq	.+2      	; 0x132a <isprint+0x2>

00001328 <isprint>:
    1328:	91 11       	cpse	r25, r1
    132a:	76 c2       	rjmp	.+1260   	; 0x1818 <__ctype_isfalse>
    132c:	80 52       	subi	r24, 0x20	; 32
    132e:	8f 55       	subi	r24, 0x5F	; 95
    1330:	e0 f7       	brcc	.-8      	; 0x132a <isprint+0x2>
    1332:	08 95       	ret

00001334 <tolower>:
    1334:	91 11       	cpse	r25, r1
    1336:	08 95       	ret
    1338:	81 54       	subi	r24, 0x41	; 65
    133a:	8a 51       	subi	r24, 0x1A	; 26
    133c:	08 f4       	brcc	.+2      	; 0x1340 <tolower+0xc>
    133e:	80 5e       	subi	r24, 0xE0	; 224
    1340:	85 5a       	subi	r24, 0xA5	; 165
    1342:	08 95       	ret

00001344 <fgetc>:
    1344:	cf 93       	push	r28
    1346:	df 93       	push	r29
    1348:	ec 01       	movw	r28, r24
    134a:	3b 81       	ldd	r19, Y+3	; 0x03
    134c:	30 ff       	sbrs	r19, 0
    134e:	34 c0       	rjmp	.+104    	; 0x13b8 <fgetc+0x74>
    1350:	36 ff       	sbrs	r19, 6
    1352:	0a c0       	rjmp	.+20     	; 0x1368 <fgetc+0x24>
    1354:	3f 7b       	andi	r19, 0xBF	; 191
    1356:	3b 83       	std	Y+3, r19	; 0x03
    1358:	8e 81       	ldd	r24, Y+6	; 0x06
    135a:	9f 81       	ldd	r25, Y+7	; 0x07
    135c:	01 96       	adiw	r24, 0x01	; 1
    135e:	9f 83       	std	Y+7, r25	; 0x07
    1360:	8e 83       	std	Y+6, r24	; 0x06
    1362:	2a 81       	ldd	r18, Y+2	; 0x02
    1364:	30 e0       	ldi	r19, 0x00	; 0
    1366:	2a c0       	rjmp	.+84     	; 0x13bc <fgetc+0x78>
    1368:	32 ff       	sbrs	r19, 2
    136a:	0f c0       	rjmp	.+30     	; 0x138a <fgetc+0x46>
    136c:	e8 81       	ld	r30, Y
    136e:	f9 81       	ldd	r31, Y+1	; 0x01
    1370:	80 81       	ld	r24, Z
    1372:	99 27       	eor	r25, r25
    1374:	87 fd       	sbrc	r24, 7
    1376:	90 95       	com	r25
    1378:	00 97       	sbiw	r24, 0x00	; 0
    137a:	19 f4       	brne	.+6      	; 0x1382 <fgetc+0x3e>
    137c:	30 62       	ori	r19, 0x20	; 32
    137e:	3b 83       	std	Y+3, r19	; 0x03
    1380:	1b c0       	rjmp	.+54     	; 0x13b8 <fgetc+0x74>
    1382:	31 96       	adiw	r30, 0x01	; 1
    1384:	f9 83       	std	Y+1, r31	; 0x01
    1386:	e8 83       	st	Y, r30
    1388:	0e c0       	rjmp	.+28     	; 0x13a6 <fgetc+0x62>
    138a:	ea 85       	ldd	r30, Y+10	; 0x0a
    138c:	fb 85       	ldd	r31, Y+11	; 0x0b
    138e:	09 95       	icall
    1390:	97 ff       	sbrs	r25, 7
    1392:	09 c0       	rjmp	.+18     	; 0x13a6 <fgetc+0x62>
    1394:	2b 81       	ldd	r18, Y+3	; 0x03
    1396:	01 96       	adiw	r24, 0x01	; 1
    1398:	11 f4       	brne	.+4      	; 0x139e <fgetc+0x5a>
    139a:	80 e1       	ldi	r24, 0x10	; 16
    139c:	01 c0       	rjmp	.+2      	; 0x13a0 <fgetc+0x5c>
    139e:	80 e2       	ldi	r24, 0x20	; 32
    13a0:	82 2b       	or	r24, r18
    13a2:	8b 83       	std	Y+3, r24	; 0x03
    13a4:	09 c0       	rjmp	.+18     	; 0x13b8 <fgetc+0x74>
    13a6:	2e 81       	ldd	r18, Y+6	; 0x06
    13a8:	3f 81       	ldd	r19, Y+7	; 0x07
    13aa:	2f 5f       	subi	r18, 0xFF	; 255
    13ac:	3f 4f       	sbci	r19, 0xFF	; 255
    13ae:	3f 83       	std	Y+7, r19	; 0x07
    13b0:	2e 83       	std	Y+6, r18	; 0x06
    13b2:	9c 01       	movw	r18, r24
    13b4:	33 27       	eor	r19, r19
    13b6:	02 c0       	rjmp	.+4      	; 0x13bc <fgetc+0x78>
    13b8:	2f ef       	ldi	r18, 0xFF	; 255
    13ba:	3f ef       	ldi	r19, 0xFF	; 255
    13bc:	c9 01       	movw	r24, r18
    13be:	df 91       	pop	r29
    13c0:	cf 91       	pop	r28
    13c2:	08 95       	ret

000013c4 <fputc>:
    13c4:	0f 93       	push	r16
    13c6:	1f 93       	push	r17
    13c8:	cf 93       	push	r28
    13ca:	df 93       	push	r29
    13cc:	8c 01       	movw	r16, r24
    13ce:	eb 01       	movw	r28, r22
    13d0:	8b 81       	ldd	r24, Y+3	; 0x03
    13d2:	81 fd       	sbrc	r24, 1
    13d4:	03 c0       	rjmp	.+6      	; 0x13dc <fputc+0x18>
    13d6:	0f ef       	ldi	r16, 0xFF	; 255
    13d8:	1f ef       	ldi	r17, 0xFF	; 255
    13da:	1a c0       	rjmp	.+52     	; 0x1410 <fputc+0x4c>
    13dc:	82 ff       	sbrs	r24, 2
    13de:	0d c0       	rjmp	.+26     	; 0x13fa <fputc+0x36>
    13e0:	2e 81       	ldd	r18, Y+6	; 0x06
    13e2:	3f 81       	ldd	r19, Y+7	; 0x07
    13e4:	8c 81       	ldd	r24, Y+4	; 0x04
    13e6:	9d 81       	ldd	r25, Y+5	; 0x05
    13e8:	28 17       	cp	r18, r24
    13ea:	39 07       	cpc	r19, r25
    13ec:	64 f4       	brge	.+24     	; 0x1406 <fputc+0x42>
    13ee:	e8 81       	ld	r30, Y
    13f0:	f9 81       	ldd	r31, Y+1	; 0x01
    13f2:	01 93       	st	Z+, r16
    13f4:	f9 83       	std	Y+1, r31	; 0x01
    13f6:	e8 83       	st	Y, r30
    13f8:	06 c0       	rjmp	.+12     	; 0x1406 <fputc+0x42>
    13fa:	e8 85       	ldd	r30, Y+8	; 0x08
    13fc:	f9 85       	ldd	r31, Y+9	; 0x09
    13fe:	80 2f       	mov	r24, r16
    1400:	09 95       	icall
    1402:	89 2b       	or	r24, r25
    1404:	41 f7       	brne	.-48     	; 0x13d6 <fputc+0x12>
    1406:	8e 81       	ldd	r24, Y+6	; 0x06
    1408:	9f 81       	ldd	r25, Y+7	; 0x07
    140a:	01 96       	adiw	r24, 0x01	; 1
    140c:	9f 83       	std	Y+7, r25	; 0x07
    140e:	8e 83       	std	Y+6, r24	; 0x06
    1410:	c8 01       	movw	r24, r16
    1412:	df 91       	pop	r29
    1414:	cf 91       	pop	r28
    1416:	1f 91       	pop	r17
    1418:	0f 91       	pop	r16
    141a:	08 95       	ret

0000141c <printf_P>:
    141c:	a0 e0       	ldi	r26, 0x00	; 0
    141e:	b0 e0       	ldi	r27, 0x00	; 0
    1420:	e4 e1       	ldi	r30, 0x14	; 20
    1422:	fa e0       	ldi	r31, 0x0A	; 10
    1424:	0c 94 91 0c 	jmp	0x1922	; 0x1922 <__prologue_saves__+0x1c>
    1428:	fe 01       	movw	r30, r28
    142a:	37 96       	adiw	r30, 0x07	; 7
    142c:	61 91       	ld	r22, Z+
    142e:	71 91       	ld	r23, Z+
    1430:	0b e7       	ldi	r16, 0x7B	; 123
    1432:	11 e0       	ldi	r17, 0x01	; 1
    1434:	d8 01       	movw	r26, r16
    1436:	8d 91       	ld	r24, X+
    1438:	9c 91       	ld	r25, X
    143a:	dc 01       	movw	r26, r24
    143c:	13 96       	adiw	r26, 0x03	; 3
    143e:	2c 91       	ld	r18, X
    1440:	13 97       	sbiw	r26, 0x03	; 3
    1442:	28 60       	ori	r18, 0x08	; 8
    1444:	13 96       	adiw	r26, 0x03	; 3
    1446:	2c 93       	st	X, r18
    1448:	af 01       	movw	r20, r30
    144a:	0e 94 30 0a 	call	0x1460	; 0x1460 <vfprintf>
    144e:	d8 01       	movw	r26, r16
    1450:	ed 91       	ld	r30, X+
    1452:	fc 91       	ld	r31, X
    1454:	23 81       	ldd	r18, Z+3	; 0x03
    1456:	27 7f       	andi	r18, 0xF7	; 247
    1458:	23 83       	std	Z+3, r18	; 0x03
    145a:	e4 e0       	ldi	r30, 0x04	; 4
    145c:	0c 94 ad 0c 	jmp	0x195a	; 0x195a <__epilogue_restores__+0x1c>

00001460 <vfprintf>:
    1460:	ac e0       	ldi	r26, 0x0C	; 12
    1462:	b0 e0       	ldi	r27, 0x00	; 0
    1464:	e6 e3       	ldi	r30, 0x36	; 54
    1466:	fa e0       	ldi	r31, 0x0A	; 10
    1468:	0c 94 83 0c 	jmp	0x1906	; 0x1906 <__prologue_saves__>
    146c:	7c 01       	movw	r14, r24
    146e:	6b 01       	movw	r12, r22
    1470:	8a 01       	movw	r16, r20
    1472:	fc 01       	movw	r30, r24
    1474:	17 82       	std	Z+7, r1	; 0x07
    1476:	16 82       	std	Z+6, r1	; 0x06
    1478:	83 81       	ldd	r24, Z+3	; 0x03
    147a:	81 ff       	sbrs	r24, 1
    147c:	c6 c1       	rjmp	.+908    	; 0x180a <vfprintf+0x3aa>
    147e:	88 24       	eor	r8, r8
    1480:	83 94       	inc	r8
    1482:	91 2c       	mov	r9, r1
    1484:	8c 0e       	add	r8, r28
    1486:	9d 1e       	adc	r9, r29
    1488:	f7 01       	movw	r30, r14
    148a:	93 81       	ldd	r25, Z+3	; 0x03
    148c:	f6 01       	movw	r30, r12
    148e:	93 fd       	sbrc	r25, 3
    1490:	85 91       	lpm	r24, Z+
    1492:	93 ff       	sbrs	r25, 3
    1494:	81 91       	ld	r24, Z+
    1496:	6f 01       	movw	r12, r30
    1498:	88 23       	and	r24, r24
    149a:	09 f4       	brne	.+2      	; 0x149e <vfprintf+0x3e>
    149c:	b2 c1       	rjmp	.+868    	; 0x1802 <vfprintf+0x3a2>
    149e:	85 32       	cpi	r24, 0x25	; 37
    14a0:	39 f4       	brne	.+14     	; 0x14b0 <vfprintf+0x50>
    14a2:	93 fd       	sbrc	r25, 3
    14a4:	85 91       	lpm	r24, Z+
    14a6:	93 ff       	sbrs	r25, 3
    14a8:	81 91       	ld	r24, Z+
    14aa:	6f 01       	movw	r12, r30
    14ac:	85 32       	cpi	r24, 0x25	; 37
    14ae:	29 f4       	brne	.+10     	; 0x14ba <vfprintf+0x5a>
    14b0:	b7 01       	movw	r22, r14
    14b2:	90 e0       	ldi	r25, 0x00	; 0
    14b4:	0e 94 e2 09 	call	0x13c4	; 0x13c4 <fputc>
    14b8:	e7 cf       	rjmp	.-50     	; 0x1488 <vfprintf+0x28>
    14ba:	51 2c       	mov	r5, r1
    14bc:	31 2c       	mov	r3, r1
    14be:	20 e0       	ldi	r18, 0x00	; 0
    14c0:	20 32       	cpi	r18, 0x20	; 32
    14c2:	a8 f4       	brcc	.+42     	; 0x14ee <vfprintf+0x8e>
    14c4:	8b 32       	cpi	r24, 0x2B	; 43
    14c6:	61 f0       	breq	.+24     	; 0x14e0 <vfprintf+0x80>
    14c8:	28 f4       	brcc	.+10     	; 0x14d4 <vfprintf+0x74>
    14ca:	80 32       	cpi	r24, 0x20	; 32
    14cc:	51 f0       	breq	.+20     	; 0x14e2 <vfprintf+0x82>
    14ce:	83 32       	cpi	r24, 0x23	; 35
    14d0:	71 f4       	brne	.+28     	; 0x14ee <vfprintf+0x8e>
    14d2:	0b c0       	rjmp	.+22     	; 0x14ea <vfprintf+0x8a>
    14d4:	8d 32       	cpi	r24, 0x2D	; 45
    14d6:	39 f0       	breq	.+14     	; 0x14e6 <vfprintf+0x86>
    14d8:	80 33       	cpi	r24, 0x30	; 48
    14da:	49 f4       	brne	.+18     	; 0x14ee <vfprintf+0x8e>
    14dc:	21 60       	ori	r18, 0x01	; 1
    14de:	28 c0       	rjmp	.+80     	; 0x1530 <vfprintf+0xd0>
    14e0:	22 60       	ori	r18, 0x02	; 2
    14e2:	24 60       	ori	r18, 0x04	; 4
    14e4:	25 c0       	rjmp	.+74     	; 0x1530 <vfprintf+0xd0>
    14e6:	28 60       	ori	r18, 0x08	; 8
    14e8:	23 c0       	rjmp	.+70     	; 0x1530 <vfprintf+0xd0>
    14ea:	20 61       	ori	r18, 0x10	; 16
    14ec:	21 c0       	rjmp	.+66     	; 0x1530 <vfprintf+0xd0>
    14ee:	27 fd       	sbrc	r18, 7
    14f0:	27 c0       	rjmp	.+78     	; 0x1540 <vfprintf+0xe0>
    14f2:	38 2f       	mov	r19, r24
    14f4:	30 53       	subi	r19, 0x30	; 48
    14f6:	3a 30       	cpi	r19, 0x0A	; 10
    14f8:	78 f4       	brcc	.+30     	; 0x1518 <vfprintf+0xb8>
    14fa:	26 ff       	sbrs	r18, 6
    14fc:	06 c0       	rjmp	.+12     	; 0x150a <vfprintf+0xaa>
    14fe:	fa e0       	ldi	r31, 0x0A	; 10
    1500:	5f 9e       	mul	r5, r31
    1502:	30 0d       	add	r19, r0
    1504:	11 24       	eor	r1, r1
    1506:	53 2e       	mov	r5, r19
    1508:	13 c0       	rjmp	.+38     	; 0x1530 <vfprintf+0xd0>
    150a:	8a e0       	ldi	r24, 0x0A	; 10
    150c:	38 9e       	mul	r3, r24
    150e:	30 0d       	add	r19, r0
    1510:	11 24       	eor	r1, r1
    1512:	33 2e       	mov	r3, r19
    1514:	20 62       	ori	r18, 0x20	; 32
    1516:	0c c0       	rjmp	.+24     	; 0x1530 <vfprintf+0xd0>
    1518:	8e 32       	cpi	r24, 0x2E	; 46
    151a:	21 f4       	brne	.+8      	; 0x1524 <vfprintf+0xc4>
    151c:	26 fd       	sbrc	r18, 6
    151e:	71 c1       	rjmp	.+738    	; 0x1802 <vfprintf+0x3a2>
    1520:	20 64       	ori	r18, 0x40	; 64
    1522:	06 c0       	rjmp	.+12     	; 0x1530 <vfprintf+0xd0>
    1524:	8c 36       	cpi	r24, 0x6C	; 108
    1526:	11 f4       	brne	.+4      	; 0x152c <vfprintf+0xcc>
    1528:	20 68       	ori	r18, 0x80	; 128
    152a:	02 c0       	rjmp	.+4      	; 0x1530 <vfprintf+0xd0>
    152c:	88 36       	cpi	r24, 0x68	; 104
    152e:	41 f4       	brne	.+16     	; 0x1540 <vfprintf+0xe0>
    1530:	f6 01       	movw	r30, r12
    1532:	93 fd       	sbrc	r25, 3
    1534:	85 91       	lpm	r24, Z+
    1536:	93 ff       	sbrs	r25, 3
    1538:	81 91       	ld	r24, Z+
    153a:	6f 01       	movw	r12, r30
    153c:	81 11       	cpse	r24, r1
    153e:	c0 cf       	rjmp	.-128    	; 0x14c0 <vfprintf+0x60>
    1540:	98 2f       	mov	r25, r24
    1542:	95 54       	subi	r25, 0x45	; 69
    1544:	93 30       	cpi	r25, 0x03	; 3
    1546:	18 f0       	brcs	.+6      	; 0x154e <vfprintf+0xee>
    1548:	90 52       	subi	r25, 0x20	; 32
    154a:	93 30       	cpi	r25, 0x03	; 3
    154c:	28 f4       	brcc	.+10     	; 0x1558 <vfprintf+0xf8>
    154e:	0c 5f       	subi	r16, 0xFC	; 252
    1550:	1f 4f       	sbci	r17, 0xFF	; 255
    1552:	ff e3       	ldi	r31, 0x3F	; 63
    1554:	f9 83       	std	Y+1, r31	; 0x01
    1556:	0d c0       	rjmp	.+26     	; 0x1572 <vfprintf+0x112>
    1558:	83 36       	cpi	r24, 0x63	; 99
    155a:	31 f0       	breq	.+12     	; 0x1568 <vfprintf+0x108>
    155c:	83 37       	cpi	r24, 0x73	; 115
    155e:	71 f0       	breq	.+28     	; 0x157c <vfprintf+0x11c>
    1560:	83 35       	cpi	r24, 0x53	; 83
    1562:	09 f0       	breq	.+2      	; 0x1566 <vfprintf+0x106>
    1564:	5e c0       	rjmp	.+188    	; 0x1622 <vfprintf+0x1c2>
    1566:	23 c0       	rjmp	.+70     	; 0x15ae <vfprintf+0x14e>
    1568:	f8 01       	movw	r30, r16
    156a:	80 81       	ld	r24, Z
    156c:	89 83       	std	Y+1, r24	; 0x01
    156e:	0e 5f       	subi	r16, 0xFE	; 254
    1570:	1f 4f       	sbci	r17, 0xFF	; 255
    1572:	44 24       	eor	r4, r4
    1574:	43 94       	inc	r4
    1576:	51 2c       	mov	r5, r1
    1578:	54 01       	movw	r10, r8
    157a:	15 c0       	rjmp	.+42     	; 0x15a6 <vfprintf+0x146>
    157c:	38 01       	movw	r6, r16
    157e:	f2 e0       	ldi	r31, 0x02	; 2
    1580:	6f 0e       	add	r6, r31
    1582:	71 1c       	adc	r7, r1
    1584:	f8 01       	movw	r30, r16
    1586:	a0 80       	ld	r10, Z
    1588:	b1 80       	ldd	r11, Z+1	; 0x01
    158a:	26 ff       	sbrs	r18, 6
    158c:	03 c0       	rjmp	.+6      	; 0x1594 <vfprintf+0x134>
    158e:	65 2d       	mov	r22, r5
    1590:	70 e0       	ldi	r23, 0x00	; 0
    1592:	02 c0       	rjmp	.+4      	; 0x1598 <vfprintf+0x138>
    1594:	6f ef       	ldi	r22, 0xFF	; 255
    1596:	7f ef       	ldi	r23, 0xFF	; 255
    1598:	c5 01       	movw	r24, r10
    159a:	2c 87       	std	Y+12, r18	; 0x0c
    159c:	0e 94 1a 0c 	call	0x1834	; 0x1834 <strnlen>
    15a0:	2c 01       	movw	r4, r24
    15a2:	83 01       	movw	r16, r6
    15a4:	2c 85       	ldd	r18, Y+12	; 0x0c
    15a6:	6f e7       	ldi	r22, 0x7F	; 127
    15a8:	26 2e       	mov	r2, r22
    15aa:	22 22       	and	r2, r18
    15ac:	18 c0       	rjmp	.+48     	; 0x15de <vfprintf+0x17e>
    15ae:	38 01       	movw	r6, r16
    15b0:	f2 e0       	ldi	r31, 0x02	; 2
    15b2:	6f 0e       	add	r6, r31
    15b4:	71 1c       	adc	r7, r1
    15b6:	f8 01       	movw	r30, r16
    15b8:	a0 80       	ld	r10, Z
    15ba:	b1 80       	ldd	r11, Z+1	; 0x01
    15bc:	26 ff       	sbrs	r18, 6
    15be:	03 c0       	rjmp	.+6      	; 0x15c6 <vfprintf+0x166>
    15c0:	65 2d       	mov	r22, r5
    15c2:	70 e0       	ldi	r23, 0x00	; 0
    15c4:	02 c0       	rjmp	.+4      	; 0x15ca <vfprintf+0x16a>
    15c6:	6f ef       	ldi	r22, 0xFF	; 255
    15c8:	7f ef       	ldi	r23, 0xFF	; 255
    15ca:	c5 01       	movw	r24, r10
    15cc:	2c 87       	std	Y+12, r18	; 0x0c
    15ce:	0e 94 0f 0c 	call	0x181e	; 0x181e <strnlen_P>
    15d2:	2c 01       	movw	r4, r24
    15d4:	2c 85       	ldd	r18, Y+12	; 0x0c
    15d6:	50 e8       	ldi	r21, 0x80	; 128
    15d8:	25 2e       	mov	r2, r21
    15da:	22 2a       	or	r2, r18
    15dc:	83 01       	movw	r16, r6
    15de:	23 fc       	sbrc	r2, 3
    15e0:	1c c0       	rjmp	.+56     	; 0x161a <vfprintf+0x1ba>
    15e2:	06 c0       	rjmp	.+12     	; 0x15f0 <vfprintf+0x190>
    15e4:	b7 01       	movw	r22, r14
    15e6:	80 e2       	ldi	r24, 0x20	; 32
    15e8:	90 e0       	ldi	r25, 0x00	; 0
    15ea:	0e 94 e2 09 	call	0x13c4	; 0x13c4 <fputc>
    15ee:	3a 94       	dec	r3
    15f0:	83 2d       	mov	r24, r3
    15f2:	90 e0       	ldi	r25, 0x00	; 0
    15f4:	48 16       	cp	r4, r24
    15f6:	59 06       	cpc	r5, r25
    15f8:	a8 f3       	brcs	.-22     	; 0x15e4 <vfprintf+0x184>
    15fa:	0f c0       	rjmp	.+30     	; 0x161a <vfprintf+0x1ba>
    15fc:	f5 01       	movw	r30, r10
    15fe:	27 fc       	sbrc	r2, 7
    1600:	85 91       	lpm	r24, Z+
    1602:	27 fe       	sbrs	r2, 7
    1604:	81 91       	ld	r24, Z+
    1606:	5f 01       	movw	r10, r30
    1608:	b7 01       	movw	r22, r14
    160a:	90 e0       	ldi	r25, 0x00	; 0
    160c:	0e 94 e2 09 	call	0x13c4	; 0x13c4 <fputc>
    1610:	31 10       	cpse	r3, r1
    1612:	3a 94       	dec	r3
    1614:	f1 e0       	ldi	r31, 0x01	; 1
    1616:	4f 1a       	sub	r4, r31
    1618:	51 08       	sbc	r5, r1
    161a:	41 14       	cp	r4, r1
    161c:	51 04       	cpc	r5, r1
    161e:	71 f7       	brne	.-36     	; 0x15fc <vfprintf+0x19c>
    1620:	ed c0       	rjmp	.+474    	; 0x17fc <vfprintf+0x39c>
    1622:	84 36       	cpi	r24, 0x64	; 100
    1624:	11 f0       	breq	.+4      	; 0x162a <vfprintf+0x1ca>
    1626:	89 36       	cpi	r24, 0x69	; 105
    1628:	41 f5       	brne	.+80     	; 0x167a <vfprintf+0x21a>
    162a:	f8 01       	movw	r30, r16
    162c:	27 ff       	sbrs	r18, 7
    162e:	07 c0       	rjmp	.+14     	; 0x163e <vfprintf+0x1de>
    1630:	60 81       	ld	r22, Z
    1632:	71 81       	ldd	r23, Z+1	; 0x01
    1634:	82 81       	ldd	r24, Z+2	; 0x02
    1636:	93 81       	ldd	r25, Z+3	; 0x03
    1638:	0c 5f       	subi	r16, 0xFC	; 252
    163a:	1f 4f       	sbci	r17, 0xFF	; 255
    163c:	08 c0       	rjmp	.+16     	; 0x164e <vfprintf+0x1ee>
    163e:	60 81       	ld	r22, Z
    1640:	71 81       	ldd	r23, Z+1	; 0x01
    1642:	88 27       	eor	r24, r24
    1644:	77 fd       	sbrc	r23, 7
    1646:	80 95       	com	r24
    1648:	98 2f       	mov	r25, r24
    164a:	0e 5f       	subi	r16, 0xFE	; 254
    164c:	1f 4f       	sbci	r17, 0xFF	; 255
    164e:	4f e6       	ldi	r20, 0x6F	; 111
    1650:	b4 2e       	mov	r11, r20
    1652:	b2 22       	and	r11, r18
    1654:	97 ff       	sbrs	r25, 7
    1656:	09 c0       	rjmp	.+18     	; 0x166a <vfprintf+0x20a>
    1658:	90 95       	com	r25
    165a:	80 95       	com	r24
    165c:	70 95       	com	r23
    165e:	61 95       	neg	r22
    1660:	7f 4f       	sbci	r23, 0xFF	; 255
    1662:	8f 4f       	sbci	r24, 0xFF	; 255
    1664:	9f 4f       	sbci	r25, 0xFF	; 255
    1666:	f0 e8       	ldi	r31, 0x80	; 128
    1668:	bf 2a       	or	r11, r31
    166a:	2a e0       	ldi	r18, 0x0A	; 10
    166c:	30 e0       	ldi	r19, 0x00	; 0
    166e:	a4 01       	movw	r20, r8
    1670:	0e 94 25 0c 	call	0x184a	; 0x184a <__ultoa_invert>
    1674:	a8 2e       	mov	r10, r24
    1676:	a8 18       	sub	r10, r8
    1678:	43 c0       	rjmp	.+134    	; 0x1700 <vfprintf+0x2a0>
    167a:	85 37       	cpi	r24, 0x75	; 117
    167c:	31 f4       	brne	.+12     	; 0x168a <vfprintf+0x22a>
    167e:	3f ee       	ldi	r19, 0xEF	; 239
    1680:	b3 2e       	mov	r11, r19
    1682:	b2 22       	and	r11, r18
    1684:	2a e0       	ldi	r18, 0x0A	; 10
    1686:	30 e0       	ldi	r19, 0x00	; 0
    1688:	24 c0       	rjmp	.+72     	; 0x16d2 <vfprintf+0x272>
    168a:	99 ef       	ldi	r25, 0xF9	; 249
    168c:	b9 2e       	mov	r11, r25
    168e:	b2 22       	and	r11, r18
    1690:	8f 36       	cpi	r24, 0x6F	; 111
    1692:	b9 f0       	breq	.+46     	; 0x16c2 <vfprintf+0x262>
    1694:	20 f4       	brcc	.+8      	; 0x169e <vfprintf+0x23e>
    1696:	88 35       	cpi	r24, 0x58	; 88
    1698:	09 f0       	breq	.+2      	; 0x169c <vfprintf+0x23c>
    169a:	b3 c0       	rjmp	.+358    	; 0x1802 <vfprintf+0x3a2>
    169c:	0d c0       	rjmp	.+26     	; 0x16b8 <vfprintf+0x258>
    169e:	80 37       	cpi	r24, 0x70	; 112
    16a0:	21 f0       	breq	.+8      	; 0x16aa <vfprintf+0x24a>
    16a2:	88 37       	cpi	r24, 0x78	; 120
    16a4:	09 f0       	breq	.+2      	; 0x16a8 <vfprintf+0x248>
    16a6:	ad c0       	rjmp	.+346    	; 0x1802 <vfprintf+0x3a2>
    16a8:	02 c0       	rjmp	.+4      	; 0x16ae <vfprintf+0x24e>
    16aa:	20 e1       	ldi	r18, 0x10	; 16
    16ac:	b2 2a       	or	r11, r18
    16ae:	b4 fe       	sbrs	r11, 4
    16b0:	0b c0       	rjmp	.+22     	; 0x16c8 <vfprintf+0x268>
    16b2:	84 e0       	ldi	r24, 0x04	; 4
    16b4:	b8 2a       	or	r11, r24
    16b6:	08 c0       	rjmp	.+16     	; 0x16c8 <vfprintf+0x268>
    16b8:	24 ff       	sbrs	r18, 4
    16ba:	09 c0       	rjmp	.+18     	; 0x16ce <vfprintf+0x26e>
    16bc:	e6 e0       	ldi	r30, 0x06	; 6
    16be:	be 2a       	or	r11, r30
    16c0:	06 c0       	rjmp	.+12     	; 0x16ce <vfprintf+0x26e>
    16c2:	28 e0       	ldi	r18, 0x08	; 8
    16c4:	30 e0       	ldi	r19, 0x00	; 0
    16c6:	05 c0       	rjmp	.+10     	; 0x16d2 <vfprintf+0x272>
    16c8:	20 e1       	ldi	r18, 0x10	; 16
    16ca:	30 e0       	ldi	r19, 0x00	; 0
    16cc:	02 c0       	rjmp	.+4      	; 0x16d2 <vfprintf+0x272>
    16ce:	20 e1       	ldi	r18, 0x10	; 16
    16d0:	32 e0       	ldi	r19, 0x02	; 2
    16d2:	f8 01       	movw	r30, r16
    16d4:	b7 fe       	sbrs	r11, 7
    16d6:	07 c0       	rjmp	.+14     	; 0x16e6 <vfprintf+0x286>
    16d8:	60 81       	ld	r22, Z
    16da:	71 81       	ldd	r23, Z+1	; 0x01
    16dc:	82 81       	ldd	r24, Z+2	; 0x02
    16de:	93 81       	ldd	r25, Z+3	; 0x03
    16e0:	0c 5f       	subi	r16, 0xFC	; 252
    16e2:	1f 4f       	sbci	r17, 0xFF	; 255
    16e4:	06 c0       	rjmp	.+12     	; 0x16f2 <vfprintf+0x292>
    16e6:	60 81       	ld	r22, Z
    16e8:	71 81       	ldd	r23, Z+1	; 0x01
    16ea:	80 e0       	ldi	r24, 0x00	; 0
    16ec:	90 e0       	ldi	r25, 0x00	; 0
    16ee:	0e 5f       	subi	r16, 0xFE	; 254
    16f0:	1f 4f       	sbci	r17, 0xFF	; 255
    16f2:	a4 01       	movw	r20, r8
    16f4:	0e 94 25 0c 	call	0x184a	; 0x184a <__ultoa_invert>
    16f8:	a8 2e       	mov	r10, r24
    16fa:	a8 18       	sub	r10, r8
    16fc:	ff e7       	ldi	r31, 0x7F	; 127
    16fe:	bf 22       	and	r11, r31
    1700:	b6 fe       	sbrs	r11, 6
    1702:	0b c0       	rjmp	.+22     	; 0x171a <vfprintf+0x2ba>
    1704:	2b 2d       	mov	r18, r11
    1706:	2e 7f       	andi	r18, 0xFE	; 254
    1708:	a5 14       	cp	r10, r5
    170a:	50 f4       	brcc	.+20     	; 0x1720 <vfprintf+0x2c0>
    170c:	b4 fe       	sbrs	r11, 4
    170e:	0a c0       	rjmp	.+20     	; 0x1724 <vfprintf+0x2c4>
    1710:	b2 fc       	sbrc	r11, 2
    1712:	08 c0       	rjmp	.+16     	; 0x1724 <vfprintf+0x2c4>
    1714:	2b 2d       	mov	r18, r11
    1716:	2e 7e       	andi	r18, 0xEE	; 238
    1718:	05 c0       	rjmp	.+10     	; 0x1724 <vfprintf+0x2c4>
    171a:	7a 2c       	mov	r7, r10
    171c:	2b 2d       	mov	r18, r11
    171e:	03 c0       	rjmp	.+6      	; 0x1726 <vfprintf+0x2c6>
    1720:	7a 2c       	mov	r7, r10
    1722:	01 c0       	rjmp	.+2      	; 0x1726 <vfprintf+0x2c6>
    1724:	75 2c       	mov	r7, r5
    1726:	24 ff       	sbrs	r18, 4
    1728:	0d c0       	rjmp	.+26     	; 0x1744 <vfprintf+0x2e4>
    172a:	fe 01       	movw	r30, r28
    172c:	ea 0d       	add	r30, r10
    172e:	f1 1d       	adc	r31, r1
    1730:	80 81       	ld	r24, Z
    1732:	80 33       	cpi	r24, 0x30	; 48
    1734:	11 f4       	brne	.+4      	; 0x173a <vfprintf+0x2da>
    1736:	29 7e       	andi	r18, 0xE9	; 233
    1738:	09 c0       	rjmp	.+18     	; 0x174c <vfprintf+0x2ec>
    173a:	22 ff       	sbrs	r18, 2
    173c:	06 c0       	rjmp	.+12     	; 0x174a <vfprintf+0x2ea>
    173e:	73 94       	inc	r7
    1740:	73 94       	inc	r7
    1742:	04 c0       	rjmp	.+8      	; 0x174c <vfprintf+0x2ec>
    1744:	82 2f       	mov	r24, r18
    1746:	86 78       	andi	r24, 0x86	; 134
    1748:	09 f0       	breq	.+2      	; 0x174c <vfprintf+0x2ec>
    174a:	73 94       	inc	r7
    174c:	23 fd       	sbrc	r18, 3
    174e:	14 c0       	rjmp	.+40     	; 0x1778 <vfprintf+0x318>
    1750:	20 ff       	sbrs	r18, 0
    1752:	0f c0       	rjmp	.+30     	; 0x1772 <vfprintf+0x312>
    1754:	5a 2c       	mov	r5, r10
    1756:	73 14       	cp	r7, r3
    1758:	60 f4       	brcc	.+24     	; 0x1772 <vfprintf+0x312>
    175a:	53 0c       	add	r5, r3
    175c:	57 18       	sub	r5, r7
    175e:	73 2c       	mov	r7, r3
    1760:	08 c0       	rjmp	.+16     	; 0x1772 <vfprintf+0x312>
    1762:	b7 01       	movw	r22, r14
    1764:	80 e2       	ldi	r24, 0x20	; 32
    1766:	90 e0       	ldi	r25, 0x00	; 0
    1768:	2c 87       	std	Y+12, r18	; 0x0c
    176a:	0e 94 e2 09 	call	0x13c4	; 0x13c4 <fputc>
    176e:	73 94       	inc	r7
    1770:	2c 85       	ldd	r18, Y+12	; 0x0c
    1772:	73 14       	cp	r7, r3
    1774:	b0 f3       	brcs	.-20     	; 0x1762 <vfprintf+0x302>
    1776:	04 c0       	rjmp	.+8      	; 0x1780 <vfprintf+0x320>
    1778:	73 14       	cp	r7, r3
    177a:	10 f4       	brcc	.+4      	; 0x1780 <vfprintf+0x320>
    177c:	37 18       	sub	r3, r7
    177e:	01 c0       	rjmp	.+2      	; 0x1782 <vfprintf+0x322>
    1780:	31 2c       	mov	r3, r1
    1782:	24 ff       	sbrs	r18, 4
    1784:	12 c0       	rjmp	.+36     	; 0x17aa <vfprintf+0x34a>
    1786:	b7 01       	movw	r22, r14
    1788:	80 e3       	ldi	r24, 0x30	; 48
    178a:	90 e0       	ldi	r25, 0x00	; 0
    178c:	2c 87       	std	Y+12, r18	; 0x0c
    178e:	0e 94 e2 09 	call	0x13c4	; 0x13c4 <fputc>
    1792:	2c 85       	ldd	r18, Y+12	; 0x0c
    1794:	22 ff       	sbrs	r18, 2
    1796:	1e c0       	rjmp	.+60     	; 0x17d4 <vfprintf+0x374>
    1798:	21 ff       	sbrs	r18, 1
    179a:	03 c0       	rjmp	.+6      	; 0x17a2 <vfprintf+0x342>
    179c:	88 e5       	ldi	r24, 0x58	; 88
    179e:	90 e0       	ldi	r25, 0x00	; 0
    17a0:	02 c0       	rjmp	.+4      	; 0x17a6 <vfprintf+0x346>
    17a2:	88 e7       	ldi	r24, 0x78	; 120
    17a4:	90 e0       	ldi	r25, 0x00	; 0
    17a6:	b7 01       	movw	r22, r14
    17a8:	0c c0       	rjmp	.+24     	; 0x17c2 <vfprintf+0x362>
    17aa:	82 2f       	mov	r24, r18
    17ac:	86 78       	andi	r24, 0x86	; 134
    17ae:	91 f0       	breq	.+36     	; 0x17d4 <vfprintf+0x374>
    17b0:	21 fd       	sbrc	r18, 1
    17b2:	02 c0       	rjmp	.+4      	; 0x17b8 <vfprintf+0x358>
    17b4:	80 e2       	ldi	r24, 0x20	; 32
    17b6:	01 c0       	rjmp	.+2      	; 0x17ba <vfprintf+0x35a>
    17b8:	8b e2       	ldi	r24, 0x2B	; 43
    17ba:	27 fd       	sbrc	r18, 7
    17bc:	8d e2       	ldi	r24, 0x2D	; 45
    17be:	b7 01       	movw	r22, r14
    17c0:	90 e0       	ldi	r25, 0x00	; 0
    17c2:	0e 94 e2 09 	call	0x13c4	; 0x13c4 <fputc>
    17c6:	06 c0       	rjmp	.+12     	; 0x17d4 <vfprintf+0x374>
    17c8:	b7 01       	movw	r22, r14
    17ca:	80 e3       	ldi	r24, 0x30	; 48
    17cc:	90 e0       	ldi	r25, 0x00	; 0
    17ce:	0e 94 e2 09 	call	0x13c4	; 0x13c4 <fputc>
    17d2:	5a 94       	dec	r5
    17d4:	a5 14       	cp	r10, r5
    17d6:	c0 f3       	brcs	.-16     	; 0x17c8 <vfprintf+0x368>
    17d8:	aa 94       	dec	r10
    17da:	f4 01       	movw	r30, r8
    17dc:	ea 0d       	add	r30, r10
    17de:	f1 1d       	adc	r31, r1
    17e0:	b7 01       	movw	r22, r14
    17e2:	80 81       	ld	r24, Z
    17e4:	90 e0       	ldi	r25, 0x00	; 0
    17e6:	0e 94 e2 09 	call	0x13c4	; 0x13c4 <fputc>
    17ea:	a1 10       	cpse	r10, r1
    17ec:	f5 cf       	rjmp	.-22     	; 0x17d8 <vfprintf+0x378>
    17ee:	06 c0       	rjmp	.+12     	; 0x17fc <vfprintf+0x39c>
    17f0:	b7 01       	movw	r22, r14
    17f2:	80 e2       	ldi	r24, 0x20	; 32
    17f4:	90 e0       	ldi	r25, 0x00	; 0
    17f6:	0e 94 e2 09 	call	0x13c4	; 0x13c4 <fputc>
    17fa:	3a 94       	dec	r3
    17fc:	31 10       	cpse	r3, r1
    17fe:	f8 cf       	rjmp	.-16     	; 0x17f0 <vfprintf+0x390>
    1800:	43 ce       	rjmp	.-890    	; 0x1488 <vfprintf+0x28>
    1802:	f7 01       	movw	r30, r14
    1804:	26 81       	ldd	r18, Z+6	; 0x06
    1806:	37 81       	ldd	r19, Z+7	; 0x07
    1808:	02 c0       	rjmp	.+4      	; 0x180e <vfprintf+0x3ae>
    180a:	2f ef       	ldi	r18, 0xFF	; 255
    180c:	3f ef       	ldi	r19, 0xFF	; 255
    180e:	c9 01       	movw	r24, r18
    1810:	2c 96       	adiw	r28, 0x0c	; 12
    1812:	e2 e1       	ldi	r30, 0x12	; 18
    1814:	0c 94 9f 0c 	jmp	0x193e	; 0x193e <__epilogue_restores__>

00001818 <__ctype_isfalse>:
    1818:	99 27       	eor	r25, r25
    181a:	88 27       	eor	r24, r24

0000181c <__ctype_istrue>:
    181c:	08 95       	ret

0000181e <strnlen_P>:
    181e:	fc 01       	movw	r30, r24
    1820:	05 90       	lpm	r0, Z+
    1822:	61 50       	subi	r22, 0x01	; 1
    1824:	70 40       	sbci	r23, 0x00	; 0
    1826:	01 10       	cpse	r0, r1
    1828:	d8 f7       	brcc	.-10     	; 0x1820 <strnlen_P+0x2>
    182a:	80 95       	com	r24
    182c:	90 95       	com	r25
    182e:	8e 0f       	add	r24, r30
    1830:	9f 1f       	adc	r25, r31
    1832:	08 95       	ret

00001834 <strnlen>:
    1834:	fc 01       	movw	r30, r24
    1836:	61 50       	subi	r22, 0x01	; 1
    1838:	70 40       	sbci	r23, 0x00	; 0
    183a:	01 90       	ld	r0, Z+
    183c:	01 10       	cpse	r0, r1
    183e:	d8 f7       	brcc	.-10     	; 0x1836 <strnlen+0x2>
    1840:	80 95       	com	r24
    1842:	90 95       	com	r25
    1844:	8e 0f       	add	r24, r30
    1846:	9f 1f       	adc	r25, r31
    1848:	08 95       	ret

0000184a <__ultoa_invert>:
    184a:	fa 01       	movw	r30, r20
    184c:	aa 27       	eor	r26, r26
    184e:	28 30       	cpi	r18, 0x08	; 8
    1850:	51 f1       	breq	.+84     	; 0x18a6 <__ultoa_invert+0x5c>
    1852:	20 31       	cpi	r18, 0x10	; 16
    1854:	81 f1       	breq	.+96     	; 0x18b6 <__ultoa_invert+0x6c>
    1856:	e8 94       	clt
    1858:	6f 93       	push	r22
    185a:	6e 7f       	andi	r22, 0xFE	; 254
    185c:	6e 5f       	subi	r22, 0xFE	; 254
    185e:	7f 4f       	sbci	r23, 0xFF	; 255
    1860:	8f 4f       	sbci	r24, 0xFF	; 255
    1862:	9f 4f       	sbci	r25, 0xFF	; 255
    1864:	af 4f       	sbci	r26, 0xFF	; 255
    1866:	b1 e0       	ldi	r27, 0x01	; 1
    1868:	3e d0       	rcall	.+124    	; 0x18e6 <__ultoa_invert+0x9c>
    186a:	b4 e0       	ldi	r27, 0x04	; 4
    186c:	3c d0       	rcall	.+120    	; 0x18e6 <__ultoa_invert+0x9c>
    186e:	67 0f       	add	r22, r23
    1870:	78 1f       	adc	r23, r24
    1872:	89 1f       	adc	r24, r25
    1874:	9a 1f       	adc	r25, r26
    1876:	a1 1d       	adc	r26, r1
    1878:	68 0f       	add	r22, r24
    187a:	79 1f       	adc	r23, r25
    187c:	8a 1f       	adc	r24, r26
    187e:	91 1d       	adc	r25, r1
    1880:	a1 1d       	adc	r26, r1
    1882:	6a 0f       	add	r22, r26
    1884:	71 1d       	adc	r23, r1
    1886:	81 1d       	adc	r24, r1
    1888:	91 1d       	adc	r25, r1
    188a:	a1 1d       	adc	r26, r1
    188c:	20 d0       	rcall	.+64     	; 0x18ce <__ultoa_invert+0x84>
    188e:	09 f4       	brne	.+2      	; 0x1892 <__ultoa_invert+0x48>
    1890:	68 94       	set
    1892:	3f 91       	pop	r19
    1894:	2a e0       	ldi	r18, 0x0A	; 10
    1896:	26 9f       	mul	r18, r22
    1898:	11 24       	eor	r1, r1
    189a:	30 19       	sub	r19, r0
    189c:	30 5d       	subi	r19, 0xD0	; 208
    189e:	31 93       	st	Z+, r19
    18a0:	de f6       	brtc	.-74     	; 0x1858 <__ultoa_invert+0xe>
    18a2:	cf 01       	movw	r24, r30
    18a4:	08 95       	ret
    18a6:	46 2f       	mov	r20, r22
    18a8:	47 70       	andi	r20, 0x07	; 7
    18aa:	40 5d       	subi	r20, 0xD0	; 208
    18ac:	41 93       	st	Z+, r20
    18ae:	b3 e0       	ldi	r27, 0x03	; 3
    18b0:	0f d0       	rcall	.+30     	; 0x18d0 <__ultoa_invert+0x86>
    18b2:	c9 f7       	brne	.-14     	; 0x18a6 <__ultoa_invert+0x5c>
    18b4:	f6 cf       	rjmp	.-20     	; 0x18a2 <__ultoa_invert+0x58>
    18b6:	46 2f       	mov	r20, r22
    18b8:	4f 70       	andi	r20, 0x0F	; 15
    18ba:	40 5d       	subi	r20, 0xD0	; 208
    18bc:	4a 33       	cpi	r20, 0x3A	; 58
    18be:	18 f0       	brcs	.+6      	; 0x18c6 <__ultoa_invert+0x7c>
    18c0:	49 5d       	subi	r20, 0xD9	; 217
    18c2:	31 fd       	sbrc	r19, 1
    18c4:	40 52       	subi	r20, 0x20	; 32
    18c6:	41 93       	st	Z+, r20
    18c8:	02 d0       	rcall	.+4      	; 0x18ce <__ultoa_invert+0x84>
    18ca:	a9 f7       	brne	.-22     	; 0x18b6 <__ultoa_invert+0x6c>
    18cc:	ea cf       	rjmp	.-44     	; 0x18a2 <__ultoa_invert+0x58>
    18ce:	b4 e0       	ldi	r27, 0x04	; 4
    18d0:	a6 95       	lsr	r26
    18d2:	97 95       	ror	r25
    18d4:	87 95       	ror	r24
    18d6:	77 95       	ror	r23
    18d8:	67 95       	ror	r22
    18da:	ba 95       	dec	r27
    18dc:	c9 f7       	brne	.-14     	; 0x18d0 <__ultoa_invert+0x86>
    18de:	00 97       	sbiw	r24, 0x00	; 0
    18e0:	61 05       	cpc	r22, r1
    18e2:	71 05       	cpc	r23, r1
    18e4:	08 95       	ret
    18e6:	9b 01       	movw	r18, r22
    18e8:	ac 01       	movw	r20, r24
    18ea:	0a 2e       	mov	r0, r26
    18ec:	06 94       	lsr	r0
    18ee:	57 95       	ror	r21
    18f0:	47 95       	ror	r20
    18f2:	37 95       	ror	r19
    18f4:	27 95       	ror	r18
    18f6:	ba 95       	dec	r27
    18f8:	c9 f7       	brne	.-14     	; 0x18ec <__ultoa_invert+0xa2>
    18fa:	62 0f       	add	r22, r18
    18fc:	73 1f       	adc	r23, r19
    18fe:	84 1f       	adc	r24, r20
    1900:	95 1f       	adc	r25, r21
    1902:	a0 1d       	adc	r26, r0
    1904:	08 95       	ret

00001906 <__prologue_saves__>:
    1906:	2f 92       	push	r2
    1908:	3f 92       	push	r3
    190a:	4f 92       	push	r4
    190c:	5f 92       	push	r5
    190e:	6f 92       	push	r6
    1910:	7f 92       	push	r7
    1912:	8f 92       	push	r8
    1914:	9f 92       	push	r9
    1916:	af 92       	push	r10
    1918:	bf 92       	push	r11
    191a:	cf 92       	push	r12
    191c:	df 92       	push	r13
    191e:	ef 92       	push	r14
    1920:	ff 92       	push	r15
    1922:	0f 93       	push	r16
    1924:	1f 93       	push	r17
    1926:	cf 93       	push	r28
    1928:	df 93       	push	r29
    192a:	cd b7       	in	r28, 0x3d	; 61
    192c:	de b7       	in	r29, 0x3e	; 62
    192e:	ca 1b       	sub	r28, r26
    1930:	db 0b       	sbc	r29, r27
    1932:	0f b6       	in	r0, 0x3f	; 63
    1934:	f8 94       	cli
    1936:	de bf       	out	0x3e, r29	; 62
    1938:	0f be       	out	0x3f, r0	; 63
    193a:	cd bf       	out	0x3d, r28	; 61
    193c:	09 94       	ijmp

0000193e <__epilogue_restores__>:
    193e:	2a 88       	ldd	r2, Y+18	; 0x12
    1940:	39 88       	ldd	r3, Y+17	; 0x11
    1942:	48 88       	ldd	r4, Y+16	; 0x10
    1944:	5f 84       	ldd	r5, Y+15	; 0x0f
    1946:	6e 84       	ldd	r6, Y+14	; 0x0e
    1948:	7d 84       	ldd	r7, Y+13	; 0x0d
    194a:	8c 84       	ldd	r8, Y+12	; 0x0c
    194c:	9b 84       	ldd	r9, Y+11	; 0x0b
    194e:	aa 84       	ldd	r10, Y+10	; 0x0a
    1950:	b9 84       	ldd	r11, Y+9	; 0x09
    1952:	c8 84       	ldd	r12, Y+8	; 0x08
    1954:	df 80       	ldd	r13, Y+7	; 0x07
    1956:	ee 80       	ldd	r14, Y+6	; 0x06
    1958:	fd 80       	ldd	r15, Y+5	; 0x05
    195a:	0c 81       	ldd	r16, Y+4	; 0x04
    195c:	1b 81       	ldd	r17, Y+3	; 0x03
    195e:	aa 81       	ldd	r26, Y+2	; 0x02
    1960:	b9 81       	ldd	r27, Y+1	; 0x01
    1962:	ce 0f       	add	r28, r30
    1964:	d1 1d       	adc	r29, r1
    1966:	0f b6       	in	r0, 0x3f	; 63
    1968:	f8 94       	cli
    196a:	de bf       	out	0x3e, r29	; 62
    196c:	0f be       	out	0x3f, r0	; 63
    196e:	cd bf       	out	0x3d, r28	; 61
    1970:	ed 01       	movw	r28, r26
    1972:	08 95       	ret

00001974 <_exit>:
    1974:	f8 94       	cli

00001976 <__stop_program>:
    1976:	ff cf       	rjmp	.-2      	; 0x1976 <__stop_program>
